---
triple:          'arm64-apple-darwin'
binary-path:     MCMF
relocations:
  - { offsetInCU: 0x1E070, offset: 0x1E070, size: 0x8, addend: 0x0, symName: __ZStL8__ioinit, symObjAddr: 0xA8DD0, symBinAddr: 0x100014000, symSize: 0x0 }
  - { offsetInCU: 0x1E6E1, offset: 0x1E6E1, size: 0x8, addend: 0x0, symName: __ZL3MOD, symObjAddr: 0x7050, symBinAddr: 0x10000A0E0, symSize: 0x0 }
  - { offsetInCU: 0x1E6F8, offset: 0x1E6F8, size: 0x8, addend: 0x0, symName: __ZL3INF, symObjAddr: 0x7054, symBinAddr: 0x10000A0E4, symSize: 0x0 }
  - { offsetInCU: 0x1EB28, offset: 0x1EB28, size: 0x8, addend: 0x0, symName: _n, symObjAddr: 0xA8DD8, symBinAddr: 0x100014008, symSize: 0x0 }
  - { offsetInCU: 0x1EB41, offset: 0x1EB41, size: 0x8, addend: 0x0, symName: _adj, symObjAddr: 0xA8DE0, symBinAddr: 0x100014010, symSize: 0x0 }
  - { offsetInCU: 0x1EEFD, offset: 0x1EEFD, size: 0x8, addend: 0x0, symName: __GLOBAL__sub_I_MCMF.cpp, symObjAddr: 0x7558, symBinAddr: 0x100008E5C, symSize: 0x1C }
  - { offsetInCU: 0x1EF04, offset: 0x1EF04, size: 0x8, addend: 0x0, symName: __ZN9__gnu_cxx13new_allocatorIN4MCMF4EdgeEE7destroyIS2_EEvPT_, symObjAddr: 0x6FE0, symBinAddr: 0x100008DBC, symSize: 0x18 }
  - { offsetInCU: 0x1EF43, offset: 0x1EF43, size: 0x8, addend: 0x0, symName: __ZNSt14_Sp_ebo_helperILi0ESaIN4MCMF4EdgeEELb1EE6_S_getERS3_, symObjAddr: 0x6FCC, symBinAddr: 0x100008DA8, symSize: 0x14 }
  - { offsetInCU: 0x1EF6D, offset: 0x1EF6D, size: 0x8, addend: 0x0, symName: __ZNSt16allocator_traitsISaIN4MCMF4EdgeEEE7destroyIS1_EEvRS2_PT_, symObjAddr: 0x6FA4, symBinAddr: 0x100008D80, symSize: 0x28 }
  - { offsetInCU: 0x1EFB5, offset: 0x1EFB5, size: 0x8, addend: 0x0, symName: __ZNSt23_Sp_counted_ptr_inplaceIN4MCMF4EdgeESaIS1_ELN9__gnu_cxx12_Lock_policyE2EE5_Impl8_M_allocEv, symObjAddr: 0x6F88, symBinAddr: 0x100008D64, symSize: 0x1C }
  - { offsetInCU: 0x1EFE4, offset: 0x1EFE4, size: 0x8, addend: 0x0, symName: __ZNSt23_Sp_counted_ptr_inplaceIN4MCMF4EdgeESaIS1_ELN9__gnu_cxx12_Lock_policyE2EE14_M_get_deleterERKSt9type_info, symObjAddr: 0x6F18, symBinAddr: 0x100008CF4, symSize: 0x70 }
  - { offsetInCU: 0x1F02F, offset: 0x1F02F, size: 0x8, addend: 0x0, symName: __ZNSt23_Sp_counted_ptr_inplaceIN4MCMF4EdgeESaIS1_ELN9__gnu_cxx12_Lock_policyE2EE10_M_destroyEv, symObjAddr: 0x6EC4, symBinAddr: 0x100008CA0, symSize: 0x54 }
  - { offsetInCU: 0x1F07B, offset: 0x1F07B, size: 0x8, addend: 0x0, symName: __ZNSt23_Sp_counted_ptr_inplaceIN4MCMF4EdgeESaIS1_ELN9__gnu_cxx12_Lock_policyE2EE10_M_disposeEv, symObjAddr: 0x6E80, symBinAddr: 0x100008C5C, symSize: 0x44 }
  - { offsetInCU: 0x1F11A, offset: 0x1F11A, size: 0x8, addend: 0x0, symName: __ZNSt23_Sp_counted_ptr_inplaceIN4MCMF4EdgeESaIS1_ELN9__gnu_cxx12_Lock_policyE2EED0Ev, symObjAddr: 0x6E58, symBinAddr: 0x100008C34, symSize: 0x28 }
  - { offsetInCU: 0x1F144, offset: 0x1F144, size: 0x8, addend: 0x0, symName: __ZNSt23_Sp_counted_ptr_inplaceIN4MCMF4EdgeESaIS1_ELN9__gnu_cxx12_Lock_policyE2EED1Ev, symObjAddr: 0x6E18, symBinAddr: 0x100008BF4, symSize: 0x40 }
  - { offsetInCU: 0x1F13C, offset: 0x1F13C, size: 0x8, addend: 0x0, symName: __Z41__static_initialization_and_destruction_0ii, symObjAddr: 0x74D0, symBinAddr: 0x100008DD4, symSize: 0x88 }
  - { offsetInCU: 0x1F155, offset: 0x1F155, size: 0x8, addend: 0x0, symName: __ZSt7forwardIRSt10shared_ptrIN4MCMF4EdgeEEEOT_RNSt16remove_referenceIS5_E4typeE, symObjAddr: 0x6E04, symBinAddr: 0x100008BE0, symSize: 0x14 }
  - { offsetInCU: 0x1F187, offset: 0x1F187, size: 0x8, addend: 0x0, symName: __ZNSt11__copy_moveILb0ELb0ESt26random_access_iterator_tagE8__copy_mIPSt10shared_ptrIN4MCMF4EdgeEES7_EET0_T_S9_S8_, symObjAddr: 0x6D90, symBinAddr: 0x100008B6C, symSize: 0x74 }
  - { offsetInCU: 0x1F216, offset: 0x1F216, size: 0x8, addend: 0x0, symName: __ZNSt11__copy_moveILb0ELb0ESt26random_access_iterator_tagE8__copy_mIPKSt10shared_ptrIN4MCMF4EdgeEEPS6_EET0_T_SB_SA_, symObjAddr: 0x6D1C, symBinAddr: 0x100008AF8, symSize: 0x74 }
  - { offsetInCU: 0x1F313, offset: 0x1F313, size: 0x8, addend: 0x0, symName: __ZNSt12__shared_ptrIN4MCMF4EdgeELN9__gnu_cxx12_Lock_policyE2EEC2EOS4_, symObjAddr: 0x6CC0, symBinAddr: 0x100008A9C, symSize: 0x5C }
  - { offsetInCU: 0x1F376, offset: 0x1F376, size: 0x8, addend: 0x0, symName: __ZNSt12_Vector_baseISt10shared_ptrIN4MCMF4EdgeEESaIS3_EE17_Vector_impl_dataC2EOS6_, symObjAddr: 0x6C50, symBinAddr: 0x100008A2C, symSize: 0x70 }
  - { offsetInCU: 0x1F360, offset: 0x1F360, size: 0x8, addend: 0x0, symName: __ZSt4moveIRNSt12_Vector_baseISt10shared_ptrIN4MCMF4EdgeEESaIS4_EE12_Vector_implEEONSt16remove_referenceIT_E4typeEOSA_, symObjAddr: 0x6C3C, symBinAddr: 0x100008A18, symSize: 0x14 }
  - { offsetInCU: 0x1F392, offset: 0x1F392, size: 0x8, addend: 0x0, symName: __ZSt10_ConstructISt10shared_ptrIN4MCMF4EdgeEEJRS3_EEvPT_DpOT0_, symObjAddr: 0x6BF4, symBinAddr: 0x1000089D0, symSize: 0x48 }
  - { offsetInCU: 0x1F3DE, offset: 0x1F3DE, size: 0x8, addend: 0x0, symName: __ZSt14__copy_move_a2ILb0EPSt10shared_ptrIN4MCMF4EdgeEES4_ET1_T0_S6_S5_, symObjAddr: 0x6BC8, symBinAddr: 0x1000089A4, symSize: 0x2C }
  - { offsetInCU: 0x1F44A, offset: 0x1F44A, size: 0x8, addend: 0x0, symName: __ZNK9__gnu_cxx17__normal_iteratorIPSt10shared_ptrIN4MCMF4EdgeEESt6vectorIS4_SaIS4_EEEplEl, symObjAddr: 0x6B88, symBinAddr: 0x100008964, symSize: 0x40 }
  - { offsetInCU: 0x1F481, offset: 0x1F481, size: 0x8, addend: 0x0, symName: __ZSt14__copy_move_a2ILb0EPKSt10shared_ptrIN4MCMF4EdgeEEPS3_ET1_T0_S8_S7_, symObjAddr: 0x6B5C, symBinAddr: 0x100008938, symSize: 0x2C }
  - { offsetInCU: 0x1F4ED, offset: 0x1F4ED, size: 0x8, addend: 0x0, symName: __ZNK9__gnu_cxx17__normal_iteratorIPKSt10shared_ptrIN4MCMF4EdgeEESt6vectorIS4_SaIS4_EEE4baseEv, symObjAddr: 0x6B48, symBinAddr: 0x100008924, symSize: 0x14 }
  - { offsetInCU: 0x1F562, offset: 0x1F562, size: 0x8, addend: 0x0, symName: __ZNSt10shared_ptrIN4MCMF4EdgeEEC1EOS2_, symObjAddr: 0x6B0C, symBinAddr: 0x1000088E8, symSize: 0x3C }
  - { offsetInCU: 0x1F5DF, offset: 0x1F5DF, size: 0x8, addend: 0x0, symName: __ZNSt12_Vector_baseISt10shared_ptrIN4MCMF4EdgeEESaIS3_EE12_Vector_implC1EOS6_, symObjAddr: 0x6ABC, symBinAddr: 0x100008898, symSize: 0x50 }
  - { offsetInCU: 0x1F5C0, offset: 0x1F5C0, size: 0x8, addend: 0x0, symName: __ZSt10_ConstructISt10shared_ptrIN4MCMF4EdgeEEJRKS3_EEvPT_DpOT0_, symObjAddr: 0x6A74, symBinAddr: 0x100008850, symSize: 0x48 }
  - { offsetInCU: 0x1F610, offset: 0x1F610, size: 0x8, addend: 0x0, symName: __ZNK9__gnu_cxx17__normal_iteratorIPKSt10shared_ptrIN4MCMF4EdgeEESt6vectorIS4_SaIS4_EEEdeEv, symObjAddr: 0x6A5C, symBinAddr: 0x100008838, symSize: 0x18 }
  - { offsetInCU: 0x1F63A, offset: 0x1F63A, size: 0x8, addend: 0x0, symName: __ZN9__gnu_cxx17__normal_iteratorIPKSt10shared_ptrIN4MCMF4EdgeEESt6vectorIS4_SaIS4_EEEppEv, symObjAddr: 0x6A34, symBinAddr: 0x100008810, symSize: 0x28 }
  - { offsetInCU: 0x1F667, offset: 0x1F667, size: 0x8, addend: 0x0, symName: __ZN9__gnu_cxxneIPKSt10shared_ptrIN4MCMF4EdgeEESt6vectorIS4_SaIS4_EEEEbRKNS_17__normal_iteratorIT_T0_EESF_, symObjAddr: 0x69F0, symBinAddr: 0x1000087CC, symSize: 0x44 }
  - { offsetInCU: 0x1F716, offset: 0x1F716, size: 0x8, addend: 0x0, symName: __ZN9__gnu_cxx13new_allocatorISt10shared_ptrIN4MCMF4EdgeEEEC2ERKS5_, symObjAddr: 0x69D8, symBinAddr: 0x1000087B4, symSize: 0x18 }
  - { offsetInCU: 0x1F702, offset: 0x1F702, size: 0x8, addend: 0x0, symName: __ZNSt20__uninitialized_copyILb0EE13__uninit_copyIPSt10shared_ptrIN4MCMF4EdgeEES6_EET0_T_S8_S7_, symObjAddr: 0x6974, symBinAddr: 0x100008750, symSize: 0x64 }
  - { offsetInCU: 0x1F76D, offset: 0x1F76D, size: 0x8, addend: 0x0, symName: __ZSt12__niter_wrapIPSt10shared_ptrIN4MCMF4EdgeEEET_RKS5_S5_, symObjAddr: 0x695C, symBinAddr: 0x100008738, symSize: 0x18 }
  - { offsetInCU: 0x1F7A9, offset: 0x1F7A9, size: 0x8, addend: 0x0, symName: __ZSt14__copy_move_a1ILb0EPSt10shared_ptrIN4MCMF4EdgeEES4_ET1_T0_S6_S5_, symObjAddr: 0x6930, symBinAddr: 0x10000870C, symSize: 0x2C }
  - { offsetInCU: 0x1F811, offset: 0x1F811, size: 0x8, addend: 0x0, symName: __ZNSt12_Destroy_auxILb0EE9__destroyIN9__gnu_cxx17__normal_iteratorIPSt10shared_ptrIN4MCMF4EdgeEESt6vectorIS7_SaIS7_EEEEEEvT_SD_, symObjAddr: 0x68E0, symBinAddr: 0x1000086BC, symSize: 0x50 }
  - { offsetInCU: 0x1F853, offset: 0x1F853, size: 0x8, addend: 0x0, symName: __ZSt12__niter_wrapIN9__gnu_cxx17__normal_iteratorIPSt10shared_ptrIN4MCMF4EdgeEESt6vectorIS5_SaIS5_EEEES6_ET_SB_T0_, symObjAddr: 0x68A4, symBinAddr: 0x100008680, symSize: 0x3C }
  - { offsetInCU: 0x1F8A0, offset: 0x1F8A0, size: 0x8, addend: 0x0, symName: __ZSt14__copy_move_a1ILb0EPKSt10shared_ptrIN4MCMF4EdgeEEPS3_ET1_T0_S8_S7_, symObjAddr: 0x6878, symBinAddr: 0x100008654, symSize: 0x2C }
  - { offsetInCU: 0x1F908, offset: 0x1F908, size: 0x8, addend: 0x0, symName: __ZSt12__niter_baseIPSt10shared_ptrIN4MCMF4EdgeEESt6vectorIS3_SaIS3_EEET_N9__gnu_cxx17__normal_iteratorIS8_T0_EE, symObjAddr: 0x6858, symBinAddr: 0x100008634, symSize: 0x20 }
  - { offsetInCU: 0x1F944, offset: 0x1F944, size: 0x8, addend: 0x0, symName: __ZSt12__niter_baseIPKSt10shared_ptrIN4MCMF4EdgeEESt6vectorIS3_SaIS3_EEET_N9__gnu_cxx17__normal_iteratorIS9_T0_EE, symObjAddr: 0x6838, symBinAddr: 0x100008614, symSize: 0x20 }
  - { offsetInCU: 0x1F984, offset: 0x1F984, size: 0x8, addend: 0x0, symName: __ZN9__gnu_cxx13new_allocatorISt10shared_ptrIN4MCMF4EdgeEEE9constructIS4_JS4_EEEvPT_DpOT0_, symObjAddr: 0x67EC, symBinAddr: 0x1000085C8, symSize: 0x4C }
  - { offsetInCU: 0x1F9E4, offset: 0x1F9E4, size: 0x8, addend: 0x0, symName: __ZSt7forwardISt10shared_ptrIN4MCMF4EdgeEEEOT_RNSt16remove_referenceIS4_E4typeE, symObjAddr: 0x67D8, symBinAddr: 0x1000085B4, symSize: 0x14 }
  - { offsetInCU: 0x1FA1A, offset: 0x1FA1A, size: 0x8, addend: 0x0, symName: __ZN9__gnu_cxx13new_allocatorISt6vectorISt10shared_ptrIN4MCMF4EdgeEESaIS5_EEE7destroyIS7_EEvPT_, symObjAddr: 0x67B4, symBinAddr: 0x100008590, symSize: 0x24 }
  - { offsetInCU: 0x1FA5D, offset: 0x1FA5D, size: 0x8, addend: 0x0, symName: __ZN9__gnu_cxx13new_allocatorISt6vectorISt10shared_ptrIN4MCMF4EdgeEESaIS5_EEE9constructIS7_JS7_EEEvPT_DpOT0_, symObjAddr: 0x6768, symBinAddr: 0x100008544, symSize: 0x4C }
  - { offsetInCU: 0x1FB0E, offset: 0x1FB0E, size: 0x8, addend: 0x0, symName: __ZNSt6vectorISt10shared_ptrIN4MCMF4EdgeEESaIS3_EEC1EOS5_, symObjAddr: 0x6740, symBinAddr: 0x10000851C, symSize: 0x28 }
  - { offsetInCU: 0x1FB63, offset: 0x1FB63, size: 0x8, addend: 0x0, symName: __ZNSt12_Vector_baseISt10shared_ptrIN4MCMF4EdgeEESaIS3_EEC2EOS5_, symObjAddr: 0x6718, symBinAddr: 0x1000084F4, symSize: 0x28 }
  - { offsetInCU: 0x1FB59, offset: 0x1FB59, size: 0x8, addend: 0x0, symName: __ZSt7forwardISt6vectorISt10shared_ptrIN4MCMF4EdgeEESaIS4_EEEOT_RNSt16remove_referenceIS7_E4typeE, symObjAddr: 0x6704, symBinAddr: 0x1000084E0, symSize: 0x14 }
  - { offsetInCU: 0x1FBE4, offset: 0x1FBE4, size: 0x8, addend: 0x0, symName: __ZN9__gnu_cxx13new_allocatorISt10shared_ptrIN4MCMF4EdgeEEEC2Ev, symObjAddr: 0x66F0, symBinAddr: 0x1000084CC, symSize: 0x14 }
  - { offsetInCU: 0x1FBCB, offset: 0x1FBCB, size: 0x8, addend: 0x0, symName: __ZSt9__fill_a1IPiiEN9__gnu_cxx11__enable_ifIXsrSt11__is_scalarIT0_E7__valueEvE6__typeET_S8_RKS4_, symObjAddr: 0x6698, symBinAddr: 0x100008474, symSize: 0x58 }
  - { offsetInCU: 0x1FC3A, offset: 0x1FC3A, size: 0x8, addend: 0x0, symName: __ZNSt20__uninitialized_copyILb0EE13__uninit_copyIN9__gnu_cxx17__normal_iteratorIPKSt10shared_ptrIN4MCMF4EdgeEESt6vectorIS7_SaIS7_EEEEPS7_EET0_T_SG_SF_, symObjAddr: 0x661C, symBinAddr: 0x1000083F8, symSize: 0x7C }
  - { offsetInCU: 0x1FCF8, offset: 0x1FCF8, size: 0x8, addend: 0x0, symName: __ZNSaISt10shared_ptrIN4MCMF4EdgeEEEC1ERKS3_, symObjAddr: 0x65F4, symBinAddr: 0x1000083D0, symSize: 0x28 }
  - { offsetInCU: 0x1FD2B, offset: 0x1FD2B, size: 0x8, addend: 0x0, symName: __ZNSaISt10shared_ptrIN4MCMF4EdgeEEEC2ERKS3_, symObjAddr: 0x65CC, symBinAddr: 0x1000083A8, symSize: 0x28 }
  - { offsetInCU: 0x1FD2E, offset: 0x1FD2E, size: 0x8, addend: 0x0, symName: __ZSt18uninitialized_copyIPSt10shared_ptrIN4MCMF4EdgeEES4_ET0_T_S6_S5_, symObjAddr: 0x6598, symBinAddr: 0x100008374, symSize: 0x34 }
  - { offsetInCU: 0x1FD99, offset: 0x1FD99, size: 0x8, addend: 0x0, symName: __ZSt13__copy_move_aILb0EPSt10shared_ptrIN4MCMF4EdgeEES4_ET1_T0_S6_S5_, symObjAddr: 0x6538, symBinAddr: 0x100008314, symSize: 0x60 }
  - { offsetInCU: 0x1FE01, offset: 0x1FE01, size: 0x8, addend: 0x0, symName: __ZSt12__miter_baseIPSt10shared_ptrIN4MCMF4EdgeEEET_S5_, symObjAddr: 0x6524, symBinAddr: 0x100008300, symSize: 0x14 }
  - { offsetInCU: 0x1FE34, offset: 0x1FE34, size: 0x8, addend: 0x0, symName: __ZSt8_DestroyIN9__gnu_cxx17__normal_iteratorIPSt10shared_ptrIN4MCMF4EdgeEESt6vectorIS5_SaIS5_EEEEEvT_SB_, symObjAddr: 0x64FC, symBinAddr: 0x1000082D8, symSize: 0x28 }
  - { offsetInCU: 0x1FE76, offset: 0x1FE76, size: 0x8, addend: 0x0, symName: __ZSt13__copy_move_aILb0EN9__gnu_cxx17__normal_iteratorIPKSt10shared_ptrIN4MCMF4EdgeEESt6vectorIS5_SaIS5_EEEENS1_IPS5_SA_EEET1_T0_SF_SE_, symObjAddr: 0x649C, symBinAddr: 0x100008278, symSize: 0x60 }
  - { offsetInCU: 0x1FEDE, offset: 0x1FEDE, size: 0x8, addend: 0x0, symName: __ZSt12__miter_baseIN9__gnu_cxx17__normal_iteratorIPKSt10shared_ptrIN4MCMF4EdgeEESt6vectorIS5_SaIS5_EEEEET_SC_, symObjAddr: 0x6488, symBinAddr: 0x100008264, symSize: 0x14 }
  - { offsetInCU: 0x1FF15, offset: 0x1FF15, size: 0x8, addend: 0x0, symName: __ZNSt6vectorISt10shared_ptrIN4MCMF4EdgeEESaIS3_EE15_M_erase_at_endEPS3_, symObjAddr: 0x6414, symBinAddr: 0x1000081F0, symSize: 0x74 }
  - { offsetInCU: 0x1FF74, offset: 0x1FF74, size: 0x8, addend: 0x0, symName: __ZN9__gnu_cxx13new_allocatorIN4MCMF4EdgeEE9constructIS2_JRiiiiEEEvPT_DpOT0_, symObjAddr: 0x6380, symBinAddr: 0x10000815C, symSize: 0x94 }
  - { offsetInCU: 0x1FFFB, offset: 0x1FFFB, size: 0x8, addend: 0x0, symName: __ZN9__gnu_cxx13new_allocatorIN4MCMF4EdgeEE9constructIS2_JiRiiiEEEvPT_DpOT0_, symObjAddr: 0x62EC, symBinAddr: 0x1000080C8, symSize: 0x94 }
  - { offsetInCU: 0x2007E, offset: 0x2007E, size: 0x8, addend: 0x0, symName: __ZNSt16allocator_traitsISaISt10shared_ptrIN4MCMF4EdgeEEEE9constructIS3_JS3_EEEvRS4_PT_DpOT0_, symObjAddr: 0x62B4, symBinAddr: 0x100008090, symSize: 0x38 }
  - { offsetInCU: 0x200E4, offset: 0x200E4, size: 0x8, addend: 0x0, symName: __ZSt4moveIRSt10shared_ptrIN4MCMF4EdgeEEEONSt16remove_referenceIT_E4typeEOS6_, symObjAddr: 0x62A0, symBinAddr: 0x10000807C, symSize: 0x14 }
  - { offsetInCU: 0x2011F, offset: 0x2011F, size: 0x8, addend: 0x0, symName: __ZN9__gnu_cxx16__aligned_bufferIN4MCMF4EdgeEE7_M_addrEv, symObjAddr: 0x628C, symBinAddr: 0x100008068, symSize: 0x14 }
  - { offsetInCU: 0x20148, offset: 0x20148, size: 0x8, addend: 0x0, symName: __ZN9__gnu_cxx13new_allocatorIN4MCMF4EdgeEE9constructIS2_JRiS5_iS5_EEEvPT_DpOT0_, symObjAddr: 0x61F8, symBinAddr: 0x100007FD4, symSize: 0x94 }
  - { offsetInCU: 0x2022B, offset: 0x2022B, size: 0x8, addend: 0x0, symName: __ZNSt14_Sp_ebo_helperILi0ESaIN4MCMF4EdgeEELb1EEC2ERKS2_, symObjAddr: 0x61D0, symBinAddr: 0x100007FAC, symSize: 0x28 }
  - { offsetInCU: 0x20226, offset: 0x20226, size: 0x8, addend: 0x0, symName: __ZN9__gnu_cxx13new_allocatorISt23_Sp_counted_ptr_inplaceIN4MCMF4EdgeESaIS3_ELNS_12_Lock_policyE2EEE10deallocateEPS6_m, symObjAddr: 0x6194, symBinAddr: 0x100007F70, symSize: 0x3C }
  - { offsetInCU: 0x2026C, offset: 0x2026C, size: 0x8, addend: 0x0, symName: __ZSt11__addressofISaISt23_Sp_counted_ptr_inplaceIN4MCMF4EdgeESaIS2_ELN9__gnu_cxx12_Lock_policyE2EEEEPT_RS8_, symObjAddr: 0x6180, symBinAddr: 0x100007F5C, symSize: 0x14 }
  - { offsetInCU: 0x202A2, offset: 0x202A2, size: 0x8, addend: 0x0, symName: __ZN9__gnu_cxx13new_allocatorISt23_Sp_counted_ptr_inplaceIN4MCMF4EdgeESaIS3_ELNS_12_Lock_policyE2EEE8allocateEmPKv, symObjAddr: 0x60F8, symBinAddr: 0x100007ED4, symSize: 0x88 }
  - { offsetInCU: 0x202F5, offset: 0x202F5, size: 0x8, addend: 0x0, symName: __ZNK9__gnu_cxx13new_allocatorISt23_Sp_counted_ptr_inplaceIN4MCMF4EdgeESaIS3_ELNS_12_Lock_policyE2EEE11_M_max_sizeEv, symObjAddr: 0x60E0, symBinAddr: 0x100007EBC, symSize: 0x18 }
  - { offsetInCU: 0x2031B, offset: 0x2031B, size: 0x8, addend: 0x0, symName: __ZNSt16allocator_traitsISaISt6vectorISt10shared_ptrIN4MCMF4EdgeEESaIS4_EEEE7destroyIS6_EEvRS7_PT_, symObjAddr: 0x60B8, symBinAddr: 0x100007E94, symSize: 0x28 }
  - { offsetInCU: 0x2035F, offset: 0x2035F, size: 0x8, addend: 0x0, symName: __ZNSt16allocator_traitsISaISt6vectorISt10shared_ptrIN4MCMF4EdgeEESaIS4_EEEE9constructIS6_JS6_EEEvRS7_PT_DpOT0_, symObjAddr: 0x6080, symBinAddr: 0x100007E5C, symSize: 0x38 }
  - { offsetInCU: 0x203C5, offset: 0x203C5, size: 0x8, addend: 0x0, symName: __ZSt4moveIRSt6vectorISt10shared_ptrIN4MCMF4EdgeEESaIS4_EEEONSt16remove_referenceIT_E4typeEOS9_, symObjAddr: 0x606C, symBinAddr: 0x100007E48, symSize: 0x14 }
  - { offsetInCU: 0x20461, offset: 0x20461, size: 0x8, addend: 0x0, symName: __ZNSt12_Vector_baseISt10shared_ptrIN4MCMF4EdgeEESaIS3_EE17_Vector_impl_dataC2Ev, symObjAddr: 0x6040, symBinAddr: 0x100007E1C, symSize: 0x2C }
  - { offsetInCU: 0x20479, offset: 0x20479, size: 0x8, addend: 0x0, symName: __ZNSaISt10shared_ptrIN4MCMF4EdgeEEEC2Ev, symObjAddr: 0x6020, symBinAddr: 0x100007DFC, symSize: 0x20 }
  - { offsetInCU: 0x20477, offset: 0x20477, size: 0x8, addend: 0x0, symName: __ZSt8__fill_aIPiiEvT_S1_RKT0_, symObjAddr: 0x5FF0, symBinAddr: 0x100007DCC, symSize: 0x30 }
  - { offsetInCU: 0x204D5, offset: 0x204D5, size: 0x8, addend: 0x0, symName: __ZSt18uninitialized_copyIN9__gnu_cxx17__normal_iteratorIPKSt10shared_ptrIN4MCMF4EdgeEESt6vectorIS5_SaIS5_EEEEPS5_ET0_T_SE_SD_, symObjAddr: 0x5FBC, symBinAddr: 0x100007D98, symSize: 0x34 }
  - { offsetInCU: 0x205C6, offset: 0x205C6, size: 0x8, addend: 0x0, symName: __ZN9__gnu_cxx17__normal_iteratorIPKSt10shared_ptrIN4MCMF4EdgeEESt6vectorIS4_SaIS4_EEEC1ERKS6_, symObjAddr: 0x5F94, symBinAddr: 0x100007D70, symSize: 0x28 }
  - { offsetInCU: 0x2059B, offset: 0x2059B, size: 0x8, addend: 0x0, symName: __ZNSt12_Vector_baseISt10shared_ptrIN4MCMF4EdgeEESaIS3_EE17_M_create_storageEm, symObjAddr: 0x5F34, symBinAddr: 0x100007D10, symSize: 0x60 }
  - { offsetInCU: 0x20648, offset: 0x20648, size: 0x8, addend: 0x0, symName: __ZNSt12_Vector_baseISt10shared_ptrIN4MCMF4EdgeEESaIS3_EE12_Vector_implC1ERKS4_, symObjAddr: 0x5F04, symBinAddr: 0x100007CE0, symSize: 0x30 }
  - { offsetInCU: 0x2068B, offset: 0x2068B, size: 0x8, addend: 0x0, symName: __ZN9__gnu_cxx13new_allocatorISt10shared_ptrIN4MCMF4EdgeEEED2Ev, symObjAddr: 0x5EF0, symBinAddr: 0x100007CCC, symSize: 0x14 }
  - { offsetInCU: 0x20672, offset: 0x20672, size: 0x8, addend: 0x0, symName: __ZNSt16allocator_traitsISaISt10shared_ptrIN4MCMF4EdgeEEEE37select_on_container_copy_constructionERKS4_, symObjAddr: 0x5EC0, symBinAddr: 0x100007C9C, symSize: 0x30 }
  - { offsetInCU: 0x2069C, offset: 0x2069C, size: 0x8, addend: 0x0, symName: __ZSt22__uninitialized_copy_aIPSt10shared_ptrIN4MCMF4EdgeEES4_S3_ET0_T_S6_S5_RSaIT1_E, symObjAddr: 0x5E90, symBinAddr: 0x100007C6C, symSize: 0x30 }
  - { offsetInCU: 0x2070C, offset: 0x2070C, size: 0x8, addend: 0x0, symName: __ZSt4copyIPSt10shared_ptrIN4MCMF4EdgeEES4_ET0_T_S6_S5_, symObjAddr: 0x5E48, symBinAddr: 0x100007C24, symSize: 0x48 }
  - { offsetInCU: 0x2076A, offset: 0x2076A, size: 0x8, addend: 0x0, symName: __ZSt8_DestroyIN9__gnu_cxx17__normal_iteratorIPSt10shared_ptrIN4MCMF4EdgeEESt6vectorIS5_SaIS5_EEEES5_EvT_SB_RSaIT0_E, symObjAddr: 0x5E1C, symBinAddr: 0x100007BF8, symSize: 0x2C }
  - { offsetInCU: 0x207C0, offset: 0x207C0, size: 0x8, addend: 0x0, symName: __ZSt4copyIN9__gnu_cxx17__normal_iteratorIPKSt10shared_ptrIN4MCMF4EdgeEESt6vectorIS5_SaIS5_EEEENS1_IPS5_SA_EEET0_T_SF_SE_, symObjAddr: 0x5DD4, symBinAddr: 0x100007BB0, symSize: 0x48 }
  - { offsetInCU: 0x20822, offset: 0x20822, size: 0x8, addend: 0x0, symName: __ZNSt6vectorISt10shared_ptrIN4MCMF4EdgeEESaIS3_EE20_M_allocate_and_copyIN9__gnu_cxx17__normal_iteratorIPKS3_S5_EEEEPS3_mT_SD_, symObjAddr: 0x5D50, symBinAddr: 0x100007B2C, symSize: 0x84 }
  - { offsetInCU: 0x20899, offset: 0x20899, size: 0x8, addend: 0x0, symName: __ZNKSt6vectorISt10shared_ptrIN4MCMF4EdgeEESaIS3_EE8capacityEv, symObjAddr: 0x5D28, symBinAddr: 0x100007B04, symSize: 0x28 }
  - { offsetInCU: 0x208BF, offset: 0x208BF, size: 0x8, addend: 0x0, symName: __ZSt15__alloc_on_copyISaISt10shared_ptrIN4MCMF4EdgeEEEEvRT_RKS5_, symObjAddr: 0x5D10, symBinAddr: 0x100007AEC, symSize: 0x18 }
  - { offsetInCU: 0x20907, offset: 0x20907, size: 0x8, addend: 0x0, symName: __ZNSt6vectorISt10shared_ptrIN4MCMF4EdgeEESaIS3_EE5clearEv, symObjAddr: 0x5CE4, symBinAddr: 0x100007AC0, symSize: 0x2C }
  - { offsetInCU: 0x2092D, offset: 0x2092D, size: 0x8, addend: 0x0, symName: __ZStneRKSaISt10shared_ptrIN4MCMF4EdgeEEES5_, symObjAddr: 0x5CCC, symBinAddr: 0x100007AA8, symSize: 0x18 }
  - { offsetInCU: 0x20958, offset: 0x20958, size: 0x8, addend: 0x0, symName: __ZNSt16allocator_traitsISaIN4MCMF4EdgeEEE9constructIS1_JRiiiiEEEvRS2_PT_DpOT0_, symObjAddr: 0x5C48, symBinAddr: 0x100007A24, symSize: 0x84 }
  - { offsetInCU: 0x209E1, offset: 0x209E1, size: 0x8, addend: 0x0, symName: __ZNSt16allocator_traitsISaIN4MCMF4EdgeEEE9constructIS1_JiRiiiEEEvRS2_PT_DpOT0_, symObjAddr: 0x5BC4, symBinAddr: 0x1000079A0, symSize: 0x84 }
  - { offsetInCU: 0x20A6A, offset: 0x20A6A, size: 0x8, addend: 0x0, symName: __ZSt19__relocate_object_aISt10shared_ptrIN4MCMF4EdgeEES3_SaIS3_EEvPT_PT0_RT1_, symObjAddr: 0x5B78, symBinAddr: 0x100007954, symSize: 0x4C }
  - { offsetInCU: 0x20AD5, offset: 0x20AD5, size: 0x8, addend: 0x0, symName: __ZNK9__gnu_cxx13new_allocatorISt10shared_ptrIN4MCMF4EdgeEEE8max_sizeEv, symObjAddr: 0x5B5C, symBinAddr: 0x100007938, symSize: 0x1C }
  - { offsetInCU: 0x20AFF, offset: 0x20AFF, size: 0x8, addend: 0x0, symName: __ZN9__gnu_cxx16__aligned_bufferIN4MCMF4EdgeEE6_M_ptrEv, symObjAddr: 0x5B40, symBinAddr: 0x10000791C, symSize: 0x1C }
  - { offsetInCU: 0x20B25, offset: 0x20B25, size: 0x8, addend: 0x0, symName: __ZNSt16allocator_traitsISaIN4MCMF4EdgeEEE9constructIS1_JRiS5_iS5_EEEvRS2_PT_DpOT0_, symObjAddr: 0x5ABC, symBinAddr: 0x100007898, symSize: 0x84 }
  - { offsetInCU: 0x20C33, offset: 0x20C33, size: 0x8, addend: 0x0, symName: __ZNSt23_Sp_counted_ptr_inplaceIN4MCMF4EdgeESaIS1_ELN9__gnu_cxx12_Lock_policyE2EE5_ImplC1ES2_, symObjAddr: 0x5A94, symBinAddr: 0x100007870, symSize: 0x28 }
  - { offsetInCU: 0x20C58, offset: 0x20C58, size: 0x8, addend: 0x0, symName: __ZN9__gnu_cxx13new_allocatorIN4MCMF4EdgeEEC2ERKS3_, symObjAddr: 0x5A7C, symBinAddr: 0x100007858, symSize: 0x18 }
  - { offsetInCU: 0x20C54, offset: 0x20C54, size: 0x8, addend: 0x0, symName: __ZSt12__to_addressISt23_Sp_counted_ptr_inplaceIN4MCMF4EdgeESaIS2_ELN9__gnu_cxx12_Lock_policyE2EEEPT_S8_, symObjAddr: 0x5A68, symBinAddr: 0x100007844, symSize: 0x14 }
  - { offsetInCU: 0x20C86, offset: 0x20C86, size: 0x8, addend: 0x0, symName: __ZNSt16allocator_traitsISaISt23_Sp_counted_ptr_inplaceIN4MCMF4EdgeESaIS2_ELN9__gnu_cxx12_Lock_policyE2EEEE10deallocateERS7_PS6_m, symObjAddr: 0x5A38, symBinAddr: 0x100007814, symSize: 0x30 }
  - { offsetInCU: 0x20D7B, offset: 0x20D7B, size: 0x8, addend: 0x0, symName: __ZNSt15__allocated_ptrISaISt23_Sp_counted_ptr_inplaceIN4MCMF4EdgeESaIS2_ELN9__gnu_cxx12_Lock_policyE2EEEEC1ERS7_PS6_, symObjAddr: 0x59F8, symBinAddr: 0x1000077D4, symSize: 0x40 }
  - { offsetInCU: 0x20D3E, offset: 0x20D3E, size: 0x8, addend: 0x0, symName: __ZNSt16allocator_traitsISaISt23_Sp_counted_ptr_inplaceIN4MCMF4EdgeESaIS2_ELN9__gnu_cxx12_Lock_policyE2EEEE8allocateERS7_m, symObjAddr: 0x59D0, symBinAddr: 0x1000077AC, symSize: 0x28 }
  - { offsetInCU: 0x20E05, offset: 0x20E05, size: 0x8, addend: 0x0, symName: __ZN9__gnu_cxx13new_allocatorISt23_Sp_counted_ptr_inplaceIN4MCMF4EdgeESaIS3_ELNS_12_Lock_policyE2EEED2Ev, symObjAddr: 0x59BC, symBinAddr: 0x100007798, symSize: 0x14 }
  - { offsetInCU: 0x20E45, offset: 0x20E45, size: 0x8, addend: 0x0, symName: __ZN9__gnu_cxx13new_allocatorISt23_Sp_counted_ptr_inplaceIN4MCMF4EdgeESaIS3_ELNS_12_Lock_policyE2EEEC2Ev, symObjAddr: 0x59A8, symBinAddr: 0x100007784, symSize: 0x14 }
  - { offsetInCU: 0x20E03, offset: 0x20E03, size: 0x8, addend: 0x0, symName: __ZSt19__relocate_object_aISt6vectorISt10shared_ptrIN4MCMF4EdgeEESaIS4_EES6_SaIS6_EEvPT_PT0_RT1_, symObjAddr: 0x595C, symBinAddr: 0x100007738, symSize: 0x4C }
  - { offsetInCU: 0x20ECF, offset: 0x20ECF, size: 0x8, addend: 0x0, symName: __ZNSt12_Vector_baseISt10shared_ptrIN4MCMF4EdgeEESaIS3_EE12_Vector_implC1Ev, symObjAddr: 0x5934, symBinAddr: 0x100007710, symSize: 0x28 }
  - { offsetInCU: 0x20EAA, offset: 0x20EAA, size: 0x8, addend: 0x0, symName: __ZSt10__fill_n_aIPimiET_S1_T0_RKT1_St26random_access_iterator_tag, symObjAddr: 0x58D0, symBinAddr: 0x1000076AC, symSize: 0x64 }
  - { offsetInCU: 0x20F1A, offset: 0x20F1A, size: 0x8, addend: 0x0, symName: __ZSt19__iterator_categoryIPiENSt15iterator_traitsIT_E17iterator_categoryERKS2_, symObjAddr: 0x58BC, symBinAddr: 0x100007698, symSize: 0x14 }
  - { offsetInCU: 0x20F45, offset: 0x20F45, size: 0x8, addend: 0x0, symName: __ZSt22__uninitialized_copy_aIN9__gnu_cxx17__normal_iteratorIPKSt10shared_ptrIN4MCMF4EdgeEESt6vectorIS5_SaIS5_EEEEPS5_S5_ET0_T_SE_SD_RSaIT1_E, symObjAddr: 0x588C, symBinAddr: 0x100007668, symSize: 0x30 }
  - { offsetInCU: 0x20FB9, offset: 0x20FB9, size: 0x8, addend: 0x0, symName: __ZNKSt6vectorISt10shared_ptrIN4MCMF4EdgeEESaIS3_EE3endEv, symObjAddr: 0x5864, symBinAddr: 0x100007640, symSize: 0x28 }
  - { offsetInCU: 0x20FE3, offset: 0x20FE3, size: 0x8, addend: 0x0, symName: __ZNKSt6vectorISt10shared_ptrIN4MCMF4EdgeEESaIS3_EE5beginEv, symObjAddr: 0x5840, symBinAddr: 0x10000761C, symSize: 0x24 }
  - { offsetInCU: 0x21081, offset: 0x21081, size: 0x8, addend: 0x0, symName: __ZNSt12_Vector_baseISt10shared_ptrIN4MCMF4EdgeEESaIS3_EEC2EmRKS4_, symObjAddr: 0x57EC, symBinAddr: 0x1000075C8, symSize: 0x54 }
  - { offsetInCU: 0x210C3, offset: 0x210C3, size: 0x8, addend: 0x0, symName: __ZNSaISt10shared_ptrIN4MCMF4EdgeEEED1Ev, symObjAddr: 0x57CC, symBinAddr: 0x1000075A8, symSize: 0x20 }
  - { offsetInCU: 0x210ED, offset: 0x210ED, size: 0x8, addend: 0x0, symName: __ZNSaISt10shared_ptrIN4MCMF4EdgeEEED2Ev, symObjAddr: 0x57AC, symBinAddr: 0x100007588, symSize: 0x20 }
  - { offsetInCU: 0x210EB, offset: 0x210EB, size: 0x8, addend: 0x0, symName: __ZN9__gnu_cxx14__alloc_traitsISaISt10shared_ptrIN4MCMF4EdgeEEES4_E17_S_select_on_copyERKS5_, symObjAddr: 0x577C, symBinAddr: 0x100007558, symSize: 0x30 }
  - { offsetInCU: 0x21118, offset: 0x21118, size: 0x8, addend: 0x0, symName: __ZNSt6vectorISt10shared_ptrIN4MCMF4EdgeEESaIS3_EEaSERKS5_, symObjAddr: 0x5478, symBinAddr: 0x100007254, symSize: 0x304 }
  - { offsetInCU: 0x21195, offset: 0x21195, size: 0x8, addend: 0x0, symName: __ZN9__gnu_cxx14__alloc_traitsISaISt10shared_ptrIN4MCMF4EdgeEEES4_E15_S_always_equalEv, symObjAddr: 0x5470, symBinAddr: 0x10000724C, symSize: 0x8 }
  - { offsetInCU: 0x211AD, offset: 0x211AD, size: 0x8, addend: 0x0, symName: __ZN9__gnu_cxx14__alloc_traitsISaISt10shared_ptrIN4MCMF4EdgeEEES4_E27_S_propagate_on_copy_assignEv, symObjAddr: 0x5468, symBinAddr: 0x100007244, symSize: 0x8 }
  - { offsetInCU: 0x211CB, offset: 0x211CB, size: 0x8, addend: 0x0, symName: __ZSt7forwardIRKSt6vectorISt10shared_ptrIN4MCMF4EdgeEESaIS4_EEEOT_RNSt16remove_referenceIS9_E4typeE, symObjAddr: 0x5454, symBinAddr: 0x100007230, symSize: 0x14 }
  - { offsetInCU: 0x2125E, offset: 0x2125E, size: 0x8, addend: 0x0, symName: __ZNSt12_Vector_baseISt10shared_ptrIN4MCMF4EdgeEESaIS3_EED2Ev, symObjAddr: 0x5404, symBinAddr: 0x1000071E0, symSize: 0x50 }
  - { offsetInCU: 0x2129C, offset: 0x2129C, size: 0x8, addend: 0x0, symName: __ZNSt16_Sp_counted_baseILN9__gnu_cxx12_Lock_policyE2EEC2Ev, symObjAddr: 0x53C4, symBinAddr: 0x1000071A0, symSize: 0x40 }
  - { offsetInCU: 0x21287, offset: 0x21287, size: 0x8, addend: 0x0, symName: __ZSt10_ConstructIiJEEvPT_DpOT0_, symObjAddr: 0x5398, symBinAddr: 0x100007174, symSize: 0x2C }
  - { offsetInCU: 0x21385, offset: 0x21385, size: 0x8, addend: 0x0, symName: __ZNSt23_Sp_counted_ptr_inplaceIN4MCMF4EdgeESaIS1_ELN9__gnu_cxx12_Lock_policyE2EEC1IJRiiiiEEES2_DpOT_, symObjAddr: 0x52A0, symBinAddr: 0x10000707C, symSize: 0xF8 }
  - { offsetInCU: 0x21457, offset: 0x21457, size: 0x8, addend: 0x0, symName: __ZNSt23_Sp_counted_ptr_inplaceIN4MCMF4EdgeESaIS1_ELN9__gnu_cxx12_Lock_policyE2EEC1IJiRiiiEEES2_DpOT_, symObjAddr: 0x51A8, symBinAddr: 0x100006F84, symSize: 0xF8 }
  - { offsetInCU: 0x21467, offset: 0x21467, size: 0x8, addend: 0x0, symName: __ZSt8_DestroyISt10shared_ptrIN4MCMF4EdgeEEEvPT_, symObjAddr: 0x5188, symBinAddr: 0x100006F64, symSize: 0x20 }
  - { offsetInCU: 0x21499, offset: 0x21499, size: 0x8, addend: 0x0, symName: __ZSt11__addressofISt10shared_ptrIN4MCMF4EdgeEEEPT_RS4_, symObjAddr: 0x5174, symBinAddr: 0x100006F50, symSize: 0x14 }
  - { offsetInCU: 0x214CB, offset: 0x214CB, size: 0x8, addend: 0x0, symName: __ZSt14__relocate_a_1IPSt10shared_ptrIN4MCMF4EdgeEES4_SaIS3_EET0_T_S7_S6_RT1_, symObjAddr: 0x50F0, symBinAddr: 0x100006ECC, symSize: 0x84 }
  - { offsetInCU: 0x21554, offset: 0x21554, size: 0x8, addend: 0x0, symName: __ZSt12__niter_baseIPSt10shared_ptrIN4MCMF4EdgeEEET_S5_, symObjAddr: 0x50DC, symBinAddr: 0x100006EB8, symSize: 0x14 }
  - { offsetInCU: 0x21587, offset: 0x21587, size: 0x8, addend: 0x0, symName: __ZNSt16allocator_traitsISaISt10shared_ptrIN4MCMF4EdgeEEEE8max_sizeERKS4_, symObjAddr: 0x50C0, symBinAddr: 0x100006E9C, symSize: 0x1C }
  - { offsetInCU: 0x215B5, offset: 0x215B5, size: 0x8, addend: 0x0, symName: __ZNSt23_Sp_counted_ptr_inplaceIN4MCMF4EdgeESaIS1_ELN9__gnu_cxx12_Lock_policyE2EE6_M_ptrEv, symObjAddr: 0x50A0, symBinAddr: 0x100006E7C, symSize: 0x20 }
  - { offsetInCU: 0x215DF, offset: 0x215DF, size: 0x8, addend: 0x0, symName: __ZNSt15__allocated_ptrISaISt23_Sp_counted_ptr_inplaceIN4MCMF4EdgeESaIS2_ELN9__gnu_cxx12_Lock_policyE2EEEEaSEDn, symObjAddr: 0x5080, symBinAddr: 0x100006E5C, symSize: 0x20 }
  - { offsetInCU: 0x216D4, offset: 0x216D4, size: 0x8, addend: 0x0, symName: __ZNSt23_Sp_counted_ptr_inplaceIN4MCMF4EdgeESaIS1_ELN9__gnu_cxx12_Lock_policyE2EEC1IJRiS7_iS7_EEES2_DpOT_, symObjAddr: 0x4F88, symBinAddr: 0x100006D64, symSize: 0xF8 }
  - { offsetInCU: 0x21763, offset: 0x21763, size: 0x8, addend: 0x0, symName: __ZNSt23_Sp_counted_ptr_inplaceIN4MCMF4EdgeESaIS1_ELN9__gnu_cxx12_Lock_policyE2EE5_ImplD1Ev, symObjAddr: 0x4F68, symBinAddr: 0x100006D44, symSize: 0x20 }
  - { offsetInCU: 0x2178A, offset: 0x2178A, size: 0x8, addend: 0x0, symName: __ZNSt14_Sp_ebo_helperILi0ESaIN4MCMF4EdgeEELb1EED2Ev, symObjAddr: 0x4F48, symBinAddr: 0x100006D24, symSize: 0x20 }
  - { offsetInCU: 0x217BF, offset: 0x217BF, size: 0x8, addend: 0x0, symName: __ZNSaIN4MCMF4EdgeEEC1ERKS1_, symObjAddr: 0x4F20, symBinAddr: 0x100006CFC, symSize: 0x28 }
  - { offsetInCU: 0x217F2, offset: 0x217F2, size: 0x8, addend: 0x0, symName: __ZNSaIN4MCMF4EdgeEEC2ERKS1_, symObjAddr: 0x4EF8, symBinAddr: 0x100006CD4, symSize: 0x28 }
  - { offsetInCU: 0x21809, offset: 0x21809, size: 0x8, addend: 0x0, symName: __ZNSt15__allocated_ptrISaISt23_Sp_counted_ptr_inplaceIN4MCMF4EdgeESaIS2_ELN9__gnu_cxx12_Lock_policyE2EEEE3getEv, symObjAddr: 0x4ED8, symBinAddr: 0x100006CB4, symSize: 0x20 }
  - { offsetInCU: 0x218C1, offset: 0x218C1, size: 0x8, addend: 0x0, symName: __ZNSt15__allocated_ptrISaISt23_Sp_counted_ptr_inplaceIN4MCMF4EdgeESaIS2_ELN9__gnu_cxx12_Lock_policyE2EEEED1Ev, symObjAddr: 0x4E90, symBinAddr: 0x100006C6C, symSize: 0x48 }
  - { offsetInCU: 0x21879, offset: 0x21879, size: 0x8, addend: 0x0, symName: __ZSt18__allocate_guardedISaISt23_Sp_counted_ptr_inplaceIN4MCMF4EdgeESaIS2_ELN9__gnu_cxx12_Lock_policyE2EEEESt15__allocated_ptrIT_ERS9_, symObjAddr: 0x4E50, symBinAddr: 0x100006C2C, symSize: 0x40 }
  - { offsetInCU: 0x21928, offset: 0x21928, size: 0x8, addend: 0x0, symName: __ZNSaISt23_Sp_counted_ptr_inplaceIN4MCMF4EdgeESaIS1_ELN9__gnu_cxx12_Lock_policyE2EEED1Ev, symObjAddr: 0x4E30, symBinAddr: 0x100006C0C, symSize: 0x20 }
  - { offsetInCU: 0x21982, offset: 0x21982, size: 0x8, addend: 0x0, symName: __ZNSaISt23_Sp_counted_ptr_inplaceIN4MCMF4EdgeESaIS1_ELN9__gnu_cxx12_Lock_policyE2EEEC1IS1_EERKSaIT_E, symObjAddr: 0x4E0C, symBinAddr: 0x100006BE8, symSize: 0x24 }
  - { offsetInCU: 0x21955, offset: 0x21955, size: 0x8, addend: 0x0, symName: __ZSt14__relocate_a_1IPSt6vectorISt10shared_ptrIN4MCMF4EdgeEESaIS4_EES7_SaIS6_EET0_T_SA_S9_RT1_, symObjAddr: 0x4D88, symBinAddr: 0x100006B64, symSize: 0x84 }
  - { offsetInCU: 0x219DE, offset: 0x219DE, size: 0x8, addend: 0x0, symName: __ZSt10_ConstructISt6vectorISt10shared_ptrIN4MCMF4EdgeEESaIS4_EEJEEvPT_DpOT0_, symObjAddr: 0x4D54, symBinAddr: 0x100006B30, symSize: 0x34 }
  - { offsetInCU: 0x21A6A, offset: 0x21A6A, size: 0x8, addend: 0x0, symName: __ZNSt6vectorISt10shared_ptrIN4MCMF4EdgeEESaIS3_EEC1Ev, symObjAddr: 0x4D34, symBinAddr: 0x100006B10, symSize: 0x20 }
  - { offsetInCU: 0x21AB1, offset: 0x21AB1, size: 0x8, addend: 0x0, symName: __ZNSt12_Vector_baseISt10shared_ptrIN4MCMF4EdgeEESaIS3_EEC2Ev, symObjAddr: 0x4D14, symBinAddr: 0x100006AF0, symSize: 0x20 }
  - { offsetInCU: 0x21B0C, offset: 0x21B0C, size: 0x8, addend: 0x0, symName: __ZNSt12_Vector_baseISt10shared_ptrIN4MCMF4EdgeEESaIS3_EE12_Vector_implD1Ev, symObjAddr: 0x4CF4, symBinAddr: 0x100006AD0, symSize: 0x20 }
  - { offsetInCU: 0x21AEB, offset: 0x21AEB, size: 0x8, addend: 0x0, symName: __ZNK9__gnu_cxx13new_allocatorISt6vectorISt10shared_ptrIN4MCMF4EdgeEESaIS5_EEE8max_sizeEv, symObjAddr: 0x4CD8, symBinAddr: 0x100006AB4, symSize: 0x1C }
  - { offsetInCU: 0x21B11, offset: 0x21B11, size: 0x8, addend: 0x0, symName: __ZSt6fill_nIPimiET_S1_T0_RKT1_, symObjAddr: 0x4C80, symBinAddr: 0x100006A5C, symSize: 0x58 }
  - { offsetInCU: 0x21B7C, offset: 0x21B7C, size: 0x8, addend: 0x0, symName: __ZN9__gnu_cxx13new_allocatorIiE8allocateEmPKv, symObjAddr: 0x4C08, symBinAddr: 0x1000069E4, symSize: 0x78 }
  - { offsetInCU: 0x21BCF, offset: 0x21BCF, size: 0x8, addend: 0x0, symName: __ZNK9__gnu_cxx13new_allocatorIiE11_M_max_sizeEv, symObjAddr: 0x4BF4, symBinAddr: 0x1000069D0, symSize: 0x14 }
  - { offsetInCU: 0x21C57, offset: 0x21C57, size: 0x8, addend: 0x0, symName: __ZNSt6vectorISt10shared_ptrIN4MCMF4EdgeEESaIS3_EEC1ERKS5_, symObjAddr: 0x4B10, symBinAddr: 0x1000068EC, symSize: 0xE4 }
  - { offsetInCU: 0x21C53, offset: 0x21C53, size: 0x8, addend: 0x0, symName: __ZSt7forwardIRSt6vectorISt10shared_ptrIN4MCMF4EdgeEESaIS4_EEEOT_RNSt16remove_referenceIS8_E4typeE, symObjAddr: 0x4AFC, symBinAddr: 0x1000068D8, symSize: 0x14 }
  - { offsetInCU: 0x21C85, offset: 0x21C85, size: 0x8, addend: 0x0, symName: __ZNSt11__copy_moveILb0ELb0ESt26random_access_iterator_tagE8__copy_mIPSt6vectorISt10shared_ptrIN4MCMF4EdgeEESaIS7_EESA_EET0_T_SC_SB_, symObjAddr: 0x4A7C, symBinAddr: 0x100006858, symSize: 0x80 }
  - { offsetInCU: 0x21D14, offset: 0x21D14, size: 0x8, addend: 0x0, symName: __ZNSt11__copy_moveILb0ELb0ESt26random_access_iterator_tagE8__copy_mIPKSt6vectorISt10shared_ptrIN4MCMF4EdgeEESaIS7_EEPS9_EET0_T_SE_SD_, symObjAddr: 0x49FC, symBinAddr: 0x1000067D8, symSize: 0x80 }
  - { offsetInCU: 0x21DA3, offset: 0x21DA3, size: 0x8, addend: 0x0, symName: __ZSt10_ConstructISt6vectorISt10shared_ptrIN4MCMF4EdgeEESaIS4_EEJRKS6_EEvPT_DpOT0_, symObjAddr: 0x498C, symBinAddr: 0x100006768, symSize: 0x70 }
  - { offsetInCU: 0x21DF3, offset: 0x21DF3, size: 0x8, addend: 0x0, symName: __ZNK9__gnu_cxx17__normal_iteratorIPKSt6vectorISt10shared_ptrIN4MCMF4EdgeEESaIS5_EES1_IS7_SaIS7_EEEdeEv, symObjAddr: 0x4974, symBinAddr: 0x100006750, symSize: 0x18 }
  - { offsetInCU: 0x21E1D, offset: 0x21E1D, size: 0x8, addend: 0x0, symName: __ZN9__gnu_cxx17__normal_iteratorIPKSt6vectorISt10shared_ptrIN4MCMF4EdgeEESaIS5_EES1_IS7_SaIS7_EEEppEv, symObjAddr: 0x494C, symBinAddr: 0x100006728, symSize: 0x28 }
  - { offsetInCU: 0x21E4A, offset: 0x21E4A, size: 0x8, addend: 0x0, symName: __ZN9__gnu_cxxneIPKSt6vectorISt10shared_ptrIN4MCMF4EdgeEESaIS5_EES1_IS7_SaIS7_EEEEbRKNS_17__normal_iteratorIT_T0_EESH_, symObjAddr: 0x4908, symBinAddr: 0x1000066E4, symSize: 0x44 }
  - { offsetInCU: 0x21EF1, offset: 0x21EF1, size: 0x8, addend: 0x0, symName: __ZNSt6vectorISt10shared_ptrIN4MCMF4EdgeEESaIS3_EED1Ev, symObjAddr: 0x48B8, symBinAddr: 0x100006694, symSize: 0x50 }
  - { offsetInCU: 0x21EE1, offset: 0x21EE1, size: 0x8, addend: 0x0, symName: __ZNSt27__uninitialized_default_n_1ILb1EE18__uninit_default_nIPimEET_S3_T0_, symObjAddr: 0x4854, symBinAddr: 0x100006630, symSize: 0x64 }
  - { offsetInCU: 0x21F58, offset: 0x21F58, size: 0x8, addend: 0x0, symName: __ZSt11__addressofIiEPT_RS0_, symObjAddr: 0x4840, symBinAddr: 0x10000661C, symSize: 0x14 }
  - { offsetInCU: 0x220D7, offset: 0x220D7, size: 0x8, addend: 0x0, symName: __ZNSt14__shared_countILN9__gnu_cxx12_Lock_policyE2EEC1IN4MCMF4EdgeESaIS5_EJRiiiiEEERPT_St20_Sp_alloc_shared_tagIT0_EDpOT1_, symObjAddr: 0x46D4, symBinAddr: 0x1000064B0, symSize: 0x16C }
  - { offsetInCU: 0x22284, offset: 0x22284, size: 0x8, addend: 0x0, symName: __ZNSt14__shared_countILN9__gnu_cxx12_Lock_policyE2EEC1IN4MCMF4EdgeESaIS5_EJiRiiiEEERPT_St20_Sp_alloc_shared_tagIT0_EDpOT1_, symObjAddr: 0x4568, symBinAddr: 0x100006344, symSize: 0x16C }
  - { offsetInCU: 0x222EF, offset: 0x222EF, size: 0x8, addend: 0x0, symName: __ZN9__gnu_cxx13new_allocatorISt10shared_ptrIN4MCMF4EdgeEEE10deallocateEPS4_m, symObjAddr: 0x4538, symBinAddr: 0x100006314, symSize: 0x30 }
  - { offsetInCU: 0x22335, offset: 0x22335, size: 0x8, addend: 0x0, symName: __ZNSt12_Destroy_auxILb0EE9__destroyIPSt10shared_ptrIN4MCMF4EdgeEEEEvT_S7_, symObjAddr: 0x44EC, symBinAddr: 0x1000062C8, symSize: 0x4C }
  - { offsetInCU: 0x22377, offset: 0x22377, size: 0x8, addend: 0x0, symName: __ZSt12__relocate_aIPSt10shared_ptrIN4MCMF4EdgeEES4_SaIS3_EET0_T_S7_S6_RT1_, symObjAddr: 0x4490, symBinAddr: 0x10000626C, symSize: 0x5C }
  - { offsetInCU: 0x223F3, offset: 0x223F3, size: 0x8, addend: 0x0, symName: __ZN9__gnu_cxx13new_allocatorISt10shared_ptrIN4MCMF4EdgeEEE8allocateEmPKv, symObjAddr: 0x4418, symBinAddr: 0x1000061F4, symSize: 0x78 }
  - { offsetInCU: 0x22446, offset: 0x22446, size: 0x8, addend: 0x0, symName: __ZNK9__gnu_cxx13new_allocatorISt10shared_ptrIN4MCMF4EdgeEEE11_M_max_sizeEv, symObjAddr: 0x4404, symBinAddr: 0x1000061E0, symSize: 0x14 }
  - { offsetInCU: 0x22470, offset: 0x22470, size: 0x8, addend: 0x0, symName: __ZNKSt12_Vector_baseISt10shared_ptrIN4MCMF4EdgeEESaIS3_EE19_M_get_Tp_allocatorEv, symObjAddr: 0x43F0, symBinAddr: 0x1000061CC, symSize: 0x14 }
  - { offsetInCU: 0x22496, offset: 0x22496, size: 0x8, addend: 0x0, symName: __ZNSt6vectorISt10shared_ptrIN4MCMF4EdgeEESaIS3_EE11_S_max_sizeERKS4_, symObjAddr: 0x43B8, symBinAddr: 0x100006194, symSize: 0x38 }
  - { offsetInCU: 0x224E6, offset: 0x224E6, size: 0x8, addend: 0x0, symName: __ZNSt12__shared_ptrIN4MCMF4EdgeELN9__gnu_cxx12_Lock_policyE2EE31_M_enable_shared_from_this_withIS1_S1_EENSt9enable_ifIXntsrNS4_15__has_esft_baseIT0_vEE5valueEvE4typeEPT_, symObjAddr: 0x43A0, symBinAddr: 0x10000617C, symSize: 0x18 }
  - { offsetInCU: 0x22671, offset: 0x22671, size: 0x8, addend: 0x0, symName: __ZNSt14__shared_countILN9__gnu_cxx12_Lock_policyE2EEC1IN4MCMF4EdgeESaIS5_EJRiS7_iS7_EEERPT_St20_Sp_alloc_shared_tagIT0_EDpOT1_, symObjAddr: 0x4234, symBinAddr: 0x100006010, symSize: 0x16C }
  - { offsetInCU: 0x226D4, offset: 0x226D4, size: 0x8, addend: 0x0, symName: __ZSt12__relocate_aIPSt6vectorISt10shared_ptrIN4MCMF4EdgeEESaIS4_EES7_SaIS6_EET0_T_SA_S9_RT1_, symObjAddr: 0x41D8, symBinAddr: 0x100005FB4, symSize: 0x5C }
  - { offsetInCU: 0x2274C, offset: 0x2274C, size: 0x8, addend: 0x0, symName: __ZNSt27__uninitialized_default_n_1ILb0EE18__uninit_default_nIPSt6vectorISt10shared_ptrIN4MCMF4EdgeEESaIS6_EEmEET_SA_T0_, symObjAddr: 0x4180, symBinAddr: 0x100005F5C, symSize: 0x58 }
  - { offsetInCU: 0x227AA, offset: 0x227AA, size: 0x8, addend: 0x0, symName: __ZNSt16allocator_traitsISaISt6vectorISt10shared_ptrIN4MCMF4EdgeEESaIS4_EEEE8max_sizeERKS7_, symObjAddr: 0x4164, symBinAddr: 0x100005F40, symSize: 0x1C }
  - { offsetInCU: 0x227D4, offset: 0x227D4, size: 0x8, addend: 0x0, symName: __ZNSt22__uninitialized_fill_nILb1EE15__uninit_fill_nIPimiEET_S3_T0_RKT1_, symObjAddr: 0x4138, symBinAddr: 0x100005F14, symSize: 0x2C }
  - { offsetInCU: 0x22838, offset: 0x22838, size: 0x8, addend: 0x0, symName: __ZNSt16allocator_traitsISaIiEE8allocateERS0_m, symObjAddr: 0x4110, symBinAddr: 0x100005EEC, symSize: 0x28 }
  - { offsetInCU: 0x22877, offset: 0x22877, size: 0x8, addend: 0x0, symName: __ZNK9__gnu_cxx13new_allocatorIiE8max_sizeEv, symObjAddr: 0x40F4, symBinAddr: 0x100005ED0, symSize: 0x1C }
  - { offsetInCU: 0x2289D, offset: 0x2289D, size: 0x8, addend: 0x0, symName: __ZSt10_ConstructISt6vectorISt10shared_ptrIN4MCMF4EdgeEESaIS4_EEJRS6_EEvPT_DpOT0_, symObjAddr: 0x4084, symBinAddr: 0x100005E60, symSize: 0x70 }
  - { offsetInCU: 0x228E9, offset: 0x228E9, size: 0x8, addend: 0x0, symName: __ZSt14__copy_move_a2ILb0EPSt6vectorISt10shared_ptrIN4MCMF4EdgeEESaIS4_EES7_ET1_T0_S9_S8_, symObjAddr: 0x4058, symBinAddr: 0x100005E34, symSize: 0x2C }
  - { offsetInCU: 0x22955, offset: 0x22955, size: 0x8, addend: 0x0, symName: __ZNK9__gnu_cxx17__normal_iteratorIPSt6vectorISt10shared_ptrIN4MCMF4EdgeEESaIS5_EES1_IS7_SaIS7_EEEdeEv, symObjAddr: 0x4040, symBinAddr: 0x100005E1C, symSize: 0x18 }
  - { offsetInCU: 0x2297F, offset: 0x2297F, size: 0x8, addend: 0x0, symName: __ZN9__gnu_cxx17__normal_iteratorIPSt6vectorISt10shared_ptrIN4MCMF4EdgeEESaIS5_EES1_IS7_SaIS7_EEEppEv, symObjAddr: 0x4018, symBinAddr: 0x100005DF4, symSize: 0x28 }
  - { offsetInCU: 0x229AC, offset: 0x229AC, size: 0x8, addend: 0x0, symName: __ZN9__gnu_cxxneIPSt6vectorISt10shared_ptrIN4MCMF4EdgeEESaIS5_EES1_IS7_SaIS7_EEEEbRKNS_17__normal_iteratorIT_T0_EESG_, symObjAddr: 0x3FD4, symBinAddr: 0x100005DB0, symSize: 0x44 }
  - { offsetInCU: 0x229FD, offset: 0x229FD, size: 0x8, addend: 0x0, symName: __ZNK9__gnu_cxx17__normal_iteratorIPSt6vectorISt10shared_ptrIN4MCMF4EdgeEESaIS5_EES1_IS7_SaIS7_EEEplEl, symObjAddr: 0x3F88, symBinAddr: 0x100005D64, symSize: 0x4C }
  - { offsetInCU: 0x22A34, offset: 0x22A34, size: 0x8, addend: 0x0, symName: __ZSt14__copy_move_a2ILb0EPKSt6vectorISt10shared_ptrIN4MCMF4EdgeEESaIS4_EEPS6_ET1_T0_SB_SA_, symObjAddr: 0x3F5C, symBinAddr: 0x100005D38, symSize: 0x2C }
  - { offsetInCU: 0x22AA0, offset: 0x22AA0, size: 0x8, addend: 0x0, symName: __ZNK9__gnu_cxx17__normal_iteratorIPSt6vectorISt10shared_ptrIN4MCMF4EdgeEESaIS5_EES1_IS7_SaIS7_EEE4baseEv, symObjAddr: 0x3F48, symBinAddr: 0x100005D24, symSize: 0x14 }
  - { offsetInCU: 0x22ACA, offset: 0x22ACA, size: 0x8, addend: 0x0, symName: __ZNK9__gnu_cxx17__normal_iteratorIPKSt6vectorISt10shared_ptrIN4MCMF4EdgeEESaIS5_EES1_IS7_SaIS7_EEE4baseEv, symObjAddr: 0x3F34, symBinAddr: 0x100005D10, symSize: 0x14 }
  - { offsetInCU: 0x22AF0, offset: 0x22AF0, size: 0x8, addend: 0x0, symName: __ZNSt20__uninitialized_copyILb0EE13__uninit_copyIN9__gnu_cxx17__normal_iteratorIPKSt6vectorISt10shared_ptrIN4MCMF4EdgeEESaIS8_EES4_ISA_SaISA_EEEEPSA_EET0_T_SI_SH_, symObjAddr: 0x3E90, symBinAddr: 0x100005C6C, symSize: 0xA4 }
  - { offsetInCU: 0x22B5F, offset: 0x22B5F, size: 0x8, addend: 0x0, symName: __ZN9__gnu_cxx13new_allocatorISt6vectorISt10shared_ptrIN4MCMF4EdgeEESaIS5_EEE8allocateEmPKv, symObjAddr: 0x3E08, symBinAddr: 0x100005BE4, symSize: 0x88 }
  - { offsetInCU: 0x22BB2, offset: 0x22BB2, size: 0x8, addend: 0x0, symName: __ZNK9__gnu_cxx13new_allocatorISt6vectorISt10shared_ptrIN4MCMF4EdgeEESaIS5_EEE11_M_max_sizeEv, symObjAddr: 0x3DF0, symBinAddr: 0x100005BCC, symSize: 0x18 }
  - { offsetInCU: 0x22BD8, offset: 0x22BD8, size: 0x8, addend: 0x0, symName: __ZSt8_DestroyISt6vectorISt10shared_ptrIN4MCMF4EdgeEESaIS4_EEEvPT_, symObjAddr: 0x3DD0, symBinAddr: 0x100005BAC, symSize: 0x20 }
  - { offsetInCU: 0x22C0A, offset: 0x22C0A, size: 0x8, addend: 0x0, symName: __ZSt11__addressofISt6vectorISt10shared_ptrIN4MCMF4EdgeEESaIS4_EEEPT_RS7_, symObjAddr: 0x3DBC, symBinAddr: 0x100005B98, symSize: 0x14 }
  - { offsetInCU: 0x22C3C, offset: 0x22C3C, size: 0x8, addend: 0x0, symName: __ZSt25__uninitialized_default_nIPimET_S1_T0_, symObjAddr: 0x3D90, symBinAddr: 0x100005B6C, symSize: 0x2C }
  - { offsetInCU: 0x22D74, offset: 0x22D74, size: 0x8, addend: 0x0, symName: __ZNSt12__shared_ptrIN4MCMF4EdgeELN9__gnu_cxx12_Lock_policyE2EEC2ISaIS1_EJRiiiiEEESt20_Sp_alloc_shared_tagIT_EDpOT0_, symObjAddr: 0x3CD8, symBinAddr: 0x100005AB4, symSize: 0xB8 }
  - { offsetInCU: 0x22E57, offset: 0x22E57, size: 0x8, addend: 0x0, symName: __ZNSt12__shared_ptrIN4MCMF4EdgeELN9__gnu_cxx12_Lock_policyE2EEC2ISaIS1_EJiRiiiEEESt20_Sp_alloc_shared_tagIT_EDpOT0_, symObjAddr: 0x3C20, symBinAddr: 0x1000059FC, symSize: 0xB8 }
  - { offsetInCU: 0x22E60, offset: 0x22E60, size: 0x8, addend: 0x0, symName: __ZNSt16allocator_traitsISaISt10shared_ptrIN4MCMF4EdgeEEEE10deallocateERS4_PS3_m, symObjAddr: 0x3BF0, symBinAddr: 0x1000059CC, symSize: 0x30 }
  - { offsetInCU: 0x22EAC, offset: 0x22EAC, size: 0x8, addend: 0x0, symName: __ZSt8_DestroyIPSt10shared_ptrIN4MCMF4EdgeEEEvT_S5_, symObjAddr: 0x3BC8, symBinAddr: 0x1000059A4, symSize: 0x28 }
  - { offsetInCU: 0x22EF2, offset: 0x22EF2, size: 0x8, addend: 0x0, symName: __ZN9__gnu_cxx13new_allocatorISt10shared_ptrIN4MCMF4EdgeEEE7destroyIS4_EEvPT_, symObjAddr: 0x3BA4, symBinAddr: 0x100005980, symSize: 0x24 }
  - { offsetInCU: 0x22F31, offset: 0x22F31, size: 0x8, addend: 0x0, symName: __ZNSt6vectorISt10shared_ptrIN4MCMF4EdgeEESaIS3_EE14_S_do_relocateEPS3_S6_S6_RS4_St17integral_constantIbLb1EE, symObjAddr: 0x3B6C, symBinAddr: 0x100005948, symSize: 0x38 }
  - { offsetInCU: 0x22F97, offset: 0x22F97, size: 0x8, addend: 0x0, symName: __ZNSt16allocator_traitsISaISt10shared_ptrIN4MCMF4EdgeEEEE8allocateERS4_m, symObjAddr: 0x3B44, symBinAddr: 0x100005920, symSize: 0x28 }
  - { offsetInCU: 0x22FD6, offset: 0x22FD6, size: 0x8, addend: 0x0, symName: __ZNKSt6vectorISt10shared_ptrIN4MCMF4EdgeEESaIS3_EE4sizeEv, symObjAddr: 0x3B1C, symBinAddr: 0x1000058F8, symSize: 0x28 }
  - { offsetInCU: 0x23000, offset: 0x23000, size: 0x8, addend: 0x0, symName: __ZNKSt6vectorISt10shared_ptrIN4MCMF4EdgeEESaIS3_EE8max_sizeEv, symObjAddr: 0x3AFC, symBinAddr: 0x1000058D8, symSize: 0x20 }
  - { offsetInCU: 0x23104, offset: 0x23104, size: 0x8, addend: 0x0, symName: __ZNSt12__shared_ptrIN4MCMF4EdgeELN9__gnu_cxx12_Lock_policyE2EEC2ISaIS1_EJRiS7_iS7_EEESt20_Sp_alloc_shared_tagIT_EDpOT0_, symObjAddr: 0x3A44, symBinAddr: 0x100005820, symSize: 0xB8 }
  - { offsetInCU: 0x23109, offset: 0x23109, size: 0x8, addend: 0x0, symName: __ZNSt6vectorIS_ISt10shared_ptrIN4MCMF4EdgeEESaIS3_EESaIS5_EE14_S_do_relocateEPS5_S8_S8_RS6_St17integral_constantIbLb1EE, symObjAddr: 0x3A0C, symBinAddr: 0x1000057E8, symSize: 0x38 }
  - { offsetInCU: 0x2316F, offset: 0x2316F, size: 0x8, addend: 0x0, symName: __ZSt25__uninitialized_default_nIPSt6vectorISt10shared_ptrIN4MCMF4EdgeEESaIS4_EEmET_S8_T0_, symObjAddr: 0x39E0, symBinAddr: 0x1000057BC, symSize: 0x2C }
  - { offsetInCU: 0x231CD, offset: 0x231CD, size: 0x8, addend: 0x0, symName: __ZNSt6vectorIS_ISt10shared_ptrIN4MCMF4EdgeEESaIS3_EESaIS5_EE11_S_max_sizeERKS6_, symObjAddr: 0x39A4, symBinAddr: 0x100005780, symSize: 0x3C }
  - { offsetInCU: 0x2321D, offset: 0x2321D, size: 0x8, addend: 0x0, symName: __ZN9__gnu_cxx13new_allocatorIiE10deallocateEPim, symObjAddr: 0x3974, symBinAddr: 0x100005750, symSize: 0x30 }
  - { offsetInCU: 0x23263, offset: 0x23263, size: 0x8, addend: 0x0, symName: __ZNSt12_Destroy_auxILb1EE9__destroyIPiEEvT_S3_, symObjAddr: 0x395C, symBinAddr: 0x100005738, symSize: 0x18 }
  - { offsetInCU: 0x23297, offset: 0x23297, size: 0x8, addend: 0x0, symName: __ZSt20uninitialized_fill_nIPimiET_S1_T0_RKT1_, symObjAddr: 0x3928, symBinAddr: 0x100005704, symSize: 0x34 }
  - { offsetInCU: 0x23313, offset: 0x23313, size: 0x8, addend: 0x0, symName: __ZNSt12_Vector_baseIiSaIiEE11_M_allocateEm, symObjAddr: 0x38F0, symBinAddr: 0x1000056CC, symSize: 0x38 }
  - { offsetInCU: 0x23391, offset: 0x23391, size: 0x8, addend: 0x0, symName: __ZN9__gnu_cxx13new_allocatorIiEC2ERKS1_, symObjAddr: 0x38D8, symBinAddr: 0x1000056B4, symSize: 0x18 }
  - { offsetInCU: 0x23398, offset: 0x23398, size: 0x8, addend: 0x0, symName: __ZNSt16allocator_traitsISaIiEE8max_sizeERKS0_, symObjAddr: 0x38BC, symBinAddr: 0x100005698, symSize: 0x1C }
  - { offsetInCU: 0x233C2, offset: 0x233C2, size: 0x8, addend: 0x0, symName: __ZNSt20__uninitialized_copyILb0EE13__uninit_copyIPSt6vectorISt10shared_ptrIN4MCMF4EdgeEESaIS6_EES9_EET0_T_SB_SA_, symObjAddr: 0x3828, symBinAddr: 0x100005604, symSize: 0x94 }
  - { offsetInCU: 0x2342D, offset: 0x2342D, size: 0x8, addend: 0x0, symName: __ZSt12__niter_wrapIPSt6vectorISt10shared_ptrIN4MCMF4EdgeEESaIS4_EEET_RKS8_S8_, symObjAddr: 0x3810, symBinAddr: 0x1000055EC, symSize: 0x18 }
  - { offsetInCU: 0x23469, offset: 0x23469, size: 0x8, addend: 0x0, symName: __ZSt14__copy_move_a1ILb0EPSt6vectorISt10shared_ptrIN4MCMF4EdgeEESaIS4_EES7_ET1_T0_S9_S8_, symObjAddr: 0x37E4, symBinAddr: 0x1000055C0, symSize: 0x2C }
  - { offsetInCU: 0x234D1, offset: 0x234D1, size: 0x8, addend: 0x0, symName: __ZSt12__niter_baseIPSt6vectorISt10shared_ptrIN4MCMF4EdgeEESaIS4_EEET_S8_, symObjAddr: 0x37D0, symBinAddr: 0x1000055AC, symSize: 0x14 }
  - { offsetInCU: 0x23504, offset: 0x23504, size: 0x8, addend: 0x0, symName: __ZNSt12_Destroy_auxILb0EE9__destroyIN9__gnu_cxx17__normal_iteratorIPSt6vectorISt10shared_ptrIN4MCMF4EdgeEESaIS8_EES4_ISA_SaISA_EEEEEEvT_SF_, symObjAddr: 0x3780, symBinAddr: 0x10000555C, symSize: 0x50 }
  - { offsetInCU: 0x23546, offset: 0x23546, size: 0x8, addend: 0x0, symName: __ZSt12__niter_wrapIN9__gnu_cxx17__normal_iteratorIPSt6vectorISt10shared_ptrIN4MCMF4EdgeEESaIS6_EES2_IS8_SaIS8_EEEES9_ET_SD_T0_, symObjAddr: 0x3738, symBinAddr: 0x100005514, symSize: 0x48 }
  - { offsetInCU: 0x23593, offset: 0x23593, size: 0x8, addend: 0x0, symName: __ZSt14__copy_move_a1ILb0EPKSt6vectorISt10shared_ptrIN4MCMF4EdgeEESaIS4_EEPS6_ET1_T0_SB_SA_, symObjAddr: 0x370C, symBinAddr: 0x1000054E8, symSize: 0x2C }
  - { offsetInCU: 0x235FB, offset: 0x235FB, size: 0x8, addend: 0x0, symName: __ZSt12__niter_baseIPSt6vectorISt10shared_ptrIN4MCMF4EdgeEESaIS4_EES0_IS6_SaIS6_EEET_N9__gnu_cxx17__normal_iteratorISA_T0_EE, symObjAddr: 0x36EC, symBinAddr: 0x1000054C8, symSize: 0x20 }
  - { offsetInCU: 0x23637, offset: 0x23637, size: 0x8, addend: 0x0, symName: __ZSt12__niter_baseIPKSt6vectorISt10shared_ptrIN4MCMF4EdgeEESaIS4_EES0_IS6_SaIS6_EEET_N9__gnu_cxx17__normal_iteratorISB_T0_EE, symObjAddr: 0x36CC, symBinAddr: 0x1000054A8, symSize: 0x20 }
  - { offsetInCU: 0x23673, offset: 0x23673, size: 0x8, addend: 0x0, symName: __ZSt18uninitialized_copyIN9__gnu_cxx17__normal_iteratorIPKSt6vectorISt10shared_ptrIN4MCMF4EdgeEESaIS6_EES2_IS8_SaIS8_EEEEPS8_ET0_T_SG_SF_, symObjAddr: 0x3698, symBinAddr: 0x100005474, symSize: 0x34 }
  - { offsetInCU: 0x236DE, offset: 0x236DE, size: 0x8, addend: 0x0, symName: __ZNSt16allocator_traitsISaISt6vectorISt10shared_ptrIN4MCMF4EdgeEESaIS4_EEEE8allocateERS7_m, symObjAddr: 0x3670, symBinAddr: 0x10000544C, symSize: 0x28 }
  - { offsetInCU: 0x23719, offset: 0x23719, size: 0x8, addend: 0x0, symName: __ZNSt12_Destroy_auxILb0EE9__destroyIPSt6vectorISt10shared_ptrIN4MCMF4EdgeEESaIS6_EEEEvT_SA_, symObjAddr: 0x3624, symBinAddr: 0x100005400, symSize: 0x4C }
  - { offsetInCU: 0x2375F, offset: 0x2375F, size: 0x8, addend: 0x0, symName: __ZN9__gnu_cxx13new_allocatorISt6vectorISt10shared_ptrIN4MCMF4EdgeEESaIS5_EEE10deallocateEPS7_m, symObjAddr: 0x35E8, symBinAddr: 0x1000053C4, symSize: 0x3C }
  - { offsetInCU: 0x23804, offset: 0x23804, size: 0x8, addend: 0x0, symName: __ZNSt16_Sp_counted_baseILN9__gnu_cxx12_Lock_policyE2EED2Ev, symObjAddr: 0x35C0, symBinAddr: 0x10000539C, symSize: 0x28 }
  - { offsetInCU: 0x237EF, offset: 0x237EF, size: 0x8, addend: 0x0, symName: __ZSt27__uninitialized_default_n_aIPimiET_S1_T0_RSaIT1_E, symObjAddr: 0x3598, symBinAddr: 0x100005374, symSize: 0x28 }
  - { offsetInCU: 0x23909, offset: 0x23909, size: 0x8, addend: 0x0, symName: __ZNSt10shared_ptrIN4MCMF4EdgeEEC1ISaIS1_EJRiiiiEEESt20_Sp_alloc_shared_tagIT_EDpOT0_, symObjAddr: 0x3510, symBinAddr: 0x1000052EC, symSize: 0x88 }
  - { offsetInCU: 0x239EC, offset: 0x239EC, size: 0x8, addend: 0x0, symName: __ZNSt10shared_ptrIN4MCMF4EdgeEEC1ISaIS1_EJiRiiiEEESt20_Sp_alloc_shared_tagIT_EDpOT0_, symObjAddr: 0x3488, symBinAddr: 0x100005264, symSize: 0x88 }
  - { offsetInCU: 0x23A18, offset: 0x23A18, size: 0x8, addend: 0x0, symName: __ZNSt12_Vector_baseISt10shared_ptrIN4MCMF4EdgeEESaIS3_EE13_M_deallocateEPS3_m, symObjAddr: 0x344C, symBinAddr: 0x100005228, symSize: 0x3C }
  - { offsetInCU: 0x23A60, offset: 0x23A60, size: 0x8, addend: 0x0, symName: __ZSt8_DestroyIPSt10shared_ptrIN4MCMF4EdgeEES3_EvT_S5_RSaIT0_E, symObjAddr: 0x3420, symBinAddr: 0x1000051FC, symSize: 0x2C }
  - { offsetInCU: 0x23AB6, offset: 0x23AB6, size: 0x8, addend: 0x0, symName: __ZNSt16allocator_traitsISaISt10shared_ptrIN4MCMF4EdgeEEEE7destroyIS3_EEvRS4_PT_, symObjAddr: 0x33F8, symBinAddr: 0x1000051D4, symSize: 0x28 }
  - { offsetInCU: 0x23AFE, offset: 0x23AFE, size: 0x8, addend: 0x0, symName: __ZNSt12_Vector_baseISt10shared_ptrIN4MCMF4EdgeEESaIS3_EE19_M_get_Tp_allocatorEv, symObjAddr: 0x33E4, symBinAddr: 0x1000051C0, symSize: 0x14 }
  - { offsetInCU: 0x23B24, offset: 0x23B24, size: 0x8, addend: 0x0, symName: __ZNSt6vectorISt10shared_ptrIN4MCMF4EdgeEESaIS3_EE11_S_relocateEPS3_S6_S6_RS4_, symObjAddr: 0x33B0, symBinAddr: 0x10000518C, symSize: 0x34 }
  - { offsetInCU: 0x23B85, offset: 0x23B85, size: 0x8, addend: 0x0, symName: __ZNSt12_Vector_baseISt10shared_ptrIN4MCMF4EdgeEESaIS3_EE11_M_allocateEm, symObjAddr: 0x3378, symBinAddr: 0x100005154, symSize: 0x38 }
  - { offsetInCU: 0x23BC3, offset: 0x23BC3, size: 0x8, addend: 0x0, symName: __ZN9__gnu_cxxmiIPSt10shared_ptrIN4MCMF4EdgeEESt6vectorIS4_SaIS4_EEEENS_17__normal_iteratorIT_T0_E15difference_typeERKSC_SF_, symObjAddr: 0x3338, symBinAddr: 0x100005114, symSize: 0x40 }
  - { offsetInCU: 0x23C14, offset: 0x23C14, size: 0x8, addend: 0x0, symName: __ZNKSt6vectorISt10shared_ptrIN4MCMF4EdgeEESaIS3_EE12_M_check_lenEmPKc, symObjAddr: 0x326C, symBinAddr: 0x100005048, symSize: 0xCC }
  - { offsetInCU: 0x23C71, offset: 0x23C71, size: 0x8, addend: 0x0, symName: __ZN9__gnu_cxx13new_allocatorISt10shared_ptrIN4MCMF4EdgeEEE9constructIS4_JRKS4_EEEvPT_DpOT0_, symObjAddr: 0x3220, symBinAddr: 0x100004FFC, symSize: 0x4C }
  - { offsetInCU: 0x23D11, offset: 0x23D11, size: 0x8, addend: 0x0, symName: __ZNSt10shared_ptrIN4MCMF4EdgeEEC1ERKS2_, symObjAddr: 0x31F8, symBinAddr: 0x100004FD4, symSize: 0x28 }
  - { offsetInCU: 0x23D7E, offset: 0x23D7E, size: 0x8, addend: 0x0, symName: __ZNSt12__shared_ptrIN4MCMF4EdgeELN9__gnu_cxx12_Lock_policyE2EEC2ERKS4_, symObjAddr: 0x31B0, symBinAddr: 0x100004F8C, symSize: 0x48 }
  - { offsetInCU: 0x23D6D, offset: 0x23D6D, size: 0x8, addend: 0x0, symName: __ZSt7forwardIRKSt10shared_ptrIN4MCMF4EdgeEEEOT_RNSt16remove_referenceIS6_E4typeE, symObjAddr: 0x319C, symBinAddr: 0x100004F78, symSize: 0x14 }
  - { offsetInCU: 0x23E5E, offset: 0x23E5E, size: 0x8, addend: 0x0, symName: __ZNSt10shared_ptrIN4MCMF4EdgeEEC1ISaIS1_EJRiS5_iS5_EEESt20_Sp_alloc_shared_tagIT_EDpOT0_, symObjAddr: 0x3114, symBinAddr: 0x100004EF0, symSize: 0x88 }
  - { offsetInCU: 0x23ED5, offset: 0x23ED5, size: 0x8, addend: 0x0, symName: __ZN9__gnu_cxx13new_allocatorIN4MCMF4EdgeEED2Ev, symObjAddr: 0x3100, symBinAddr: 0x100004EDC, symSize: 0x14 }
  - { offsetInCU: 0x23F15, offset: 0x23F15, size: 0x8, addend: 0x0, symName: __ZN9__gnu_cxx13new_allocatorIN4MCMF4EdgeEEC2Ev, symObjAddr: 0x30EC, symBinAddr: 0x100004EC8, symSize: 0x14 }
  - { offsetInCU: 0x23F0C, offset: 0x23F0C, size: 0x8, addend: 0x0, symName: __ZNSt6vectorIS_ISt10shared_ptrIN4MCMF4EdgeEESaIS3_EESaIS5_EE11_S_relocateEPS5_S8_S8_RS6_, symObjAddr: 0x30B8, symBinAddr: 0x100004E94, symSize: 0x34 }
  - { offsetInCU: 0x23F6D, offset: 0x23F6D, size: 0x8, addend: 0x0, symName: __ZNKSt6vectorIS_ISt10shared_ptrIN4MCMF4EdgeEESaIS3_EESaIS5_EE12_M_check_lenEmPKc, symObjAddr: 0x2FEC, symBinAddr: 0x100004DC8, symSize: 0xCC }
  - { offsetInCU: 0x23FC6, offset: 0x23FC6, size: 0x8, addend: 0x0, symName: __ZSt27__uninitialized_default_n_aIPSt6vectorISt10shared_ptrIN4MCMF4EdgeEESaIS4_EEmS6_ET_S8_T0_RSaIT1_E, symObjAddr: 0x2FC4, symBinAddr: 0x100004DA0, symSize: 0x28 }
  - { offsetInCU: 0x24029, offset: 0x24029, size: 0x8, addend: 0x0, symName: __ZNKSt6vectorIS_ISt10shared_ptrIN4MCMF4EdgeEESaIS3_EESaIS5_EE8max_sizeEv, symObjAddr: 0x2FA4, symBinAddr: 0x100004D80, symSize: 0x20 }
  - { offsetInCU: 0x2404F, offset: 0x2404F, size: 0x8, addend: 0x0, symName: __ZNSt16allocator_traitsISaIiEE10deallocateERS0_Pim, symObjAddr: 0x2F74, symBinAddr: 0x100004D50, symSize: 0x30 }
  - { offsetInCU: 0x2409F, offset: 0x2409F, size: 0x8, addend: 0x0, symName: __ZNKSt12__shared_ptrIN4MCMF4EdgeELN9__gnu_cxx12_Lock_policyE2EE3getEv, symObjAddr: 0x2F5C, symBinAddr: 0x100004D38, symSize: 0x18 }
  - { offsetInCU: 0x240C5, offset: 0x240C5, size: 0x8, addend: 0x0, symName: __ZSt8_DestroyIPiEvT_S1_, symObjAddr: 0x2F34, symBinAddr: 0x100004D10, symSize: 0x28 }
  - { offsetInCU: 0x24107, offset: 0x24107, size: 0x8, addend: 0x0, symName: __ZSt24__uninitialized_fill_n_aIPimiiET_S1_T0_RKT1_RSaIT2_E, symObjAddr: 0x2F04, symBinAddr: 0x100004CE0, symSize: 0x30 }
  - { offsetInCU: 0x24184, offset: 0x24184, size: 0x8, addend: 0x0, symName: __ZNSt12_Vector_baseIiSaIiEE17_M_create_storageEm, symObjAddr: 0x2EA4, symBinAddr: 0x100004C80, symSize: 0x60 }
  - { offsetInCU: 0x24214, offset: 0x24214, size: 0x8, addend: 0x0, symName: __ZNSt12_Vector_baseIiSaIiEE12_Vector_implC1ERKS0_, symObjAddr: 0x2E74, symBinAddr: 0x100004C50, symSize: 0x30 }
  - { offsetInCU: 0x24248, offset: 0x24248, size: 0x8, addend: 0x0, symName: __ZNSaIiEC1ERKS_, symObjAddr: 0x2E4C, symBinAddr: 0x100004C28, symSize: 0x28 }
  - { offsetInCU: 0x2427B, offset: 0x2427B, size: 0x8, addend: 0x0, symName: __ZNSaIiEC2ERKS_, symObjAddr: 0x2E24, symBinAddr: 0x100004C00, symSize: 0x28 }
  - { offsetInCU: 0x2429A, offset: 0x2429A, size: 0x8, addend: 0x0, symName: __ZNSt6vectorIiSaIiEE11_S_max_sizeERKS0_, symObjAddr: 0x2DEC, symBinAddr: 0x100004BC8, symSize: 0x38 }
  - { offsetInCU: 0x242E6, offset: 0x242E6, size: 0x8, addend: 0x0, symName: __ZSt18uninitialized_copyIPSt6vectorISt10shared_ptrIN4MCMF4EdgeEESaIS4_EES7_ET0_T_S9_S8_, symObjAddr: 0x2DB8, symBinAddr: 0x100004B94, symSize: 0x34 }
  - { offsetInCU: 0x24351, offset: 0x24351, size: 0x8, addend: 0x0, symName: __ZSt13__copy_move_aILb0EPSt6vectorISt10shared_ptrIN4MCMF4EdgeEESaIS4_EES7_ET1_T0_S9_S8_, symObjAddr: 0x2D58, symBinAddr: 0x100004B34, symSize: 0x60 }
  - { offsetInCU: 0x243B9, offset: 0x243B9, size: 0x8, addend: 0x0, symName: __ZSt12__miter_baseIPSt6vectorISt10shared_ptrIN4MCMF4EdgeEESaIS4_EEET_S8_, symObjAddr: 0x2D44, symBinAddr: 0x100004B20, symSize: 0x14 }
  - { offsetInCU: 0x243EC, offset: 0x243EC, size: 0x8, addend: 0x0, symName: __ZSt8_DestroyIN9__gnu_cxx17__normal_iteratorIPSt6vectorISt10shared_ptrIN4MCMF4EdgeEESaIS6_EES2_IS8_SaIS8_EEEEEvT_SD_, symObjAddr: 0x2D1C, symBinAddr: 0x100004AF8, symSize: 0x28 }
  - { offsetInCU: 0x2442E, offset: 0x2442E, size: 0x8, addend: 0x0, symName: __ZSt13__copy_move_aILb0EN9__gnu_cxx17__normal_iteratorIPKSt6vectorISt10shared_ptrIN4MCMF4EdgeEESaIS6_EES2_IS8_SaIS8_EEEENS1_IPS8_SC_EEET1_T0_SH_SG_, symObjAddr: 0x2CBC, symBinAddr: 0x100004A98, symSize: 0x60 }
  - { offsetInCU: 0x24496, offset: 0x24496, size: 0x8, addend: 0x0, symName: __ZSt12__miter_baseIN9__gnu_cxx17__normal_iteratorIPKSt6vectorISt10shared_ptrIN4MCMF4EdgeEESaIS6_EES2_IS8_SaIS8_EEEEET_SE_, symObjAddr: 0x2CA8, symBinAddr: 0x100004A84, symSize: 0x14 }
  - { offsetInCU: 0x2455A, offset: 0x2455A, size: 0x8, addend: 0x0, symName: __ZN9__gnu_cxx17__normal_iteratorIPSt6vectorISt10shared_ptrIN4MCMF4EdgeEESaIS5_EES1_IS7_SaIS7_EEEC1ERKS8_, symObjAddr: 0x2C80, symBinAddr: 0x100004A5C, symSize: 0x28 }
  - { offsetInCU: 0x24520, offset: 0x24520, size: 0x8, addend: 0x0, symName: __ZSt22__uninitialized_copy_aIN9__gnu_cxx17__normal_iteratorIPKSt6vectorISt10shared_ptrIN4MCMF4EdgeEESaIS6_EES2_IS8_SaIS8_EEEEPS8_S8_ET0_T_SG_SF_RSaIT1_E, symObjAddr: 0x2C50, symBinAddr: 0x100004A2C, symSize: 0x30 }
  - { offsetInCU: 0x24594, offset: 0x24594, size: 0x8, addend: 0x0, symName: __ZNSt12_Vector_baseISt6vectorISt10shared_ptrIN4MCMF4EdgeEESaIS4_EESaIS6_EE11_M_allocateEm, symObjAddr: 0x2C18, symBinAddr: 0x1000049F4, symSize: 0x38 }
  - { offsetInCU: 0x2465D, offset: 0x2465D, size: 0x8, addend: 0x0, symName: __ZN9__gnu_cxx17__normal_iteratorIPKSt6vectorISt10shared_ptrIN4MCMF4EdgeEESaIS5_EES1_IS7_SaIS7_EEEC1ERKS9_, symObjAddr: 0x2BF0, symBinAddr: 0x1000049CC, symSize: 0x28 }
  - { offsetInCU: 0x24622, offset: 0x24622, size: 0x8, addend: 0x0, symName: __ZSt8_DestroyIPSt6vectorISt10shared_ptrIN4MCMF4EdgeEESaIS4_EEEvT_S8_, symObjAddr: 0x2BC8, symBinAddr: 0x1000049A4, symSize: 0x28 }
  - { offsetInCU: 0x24664, offset: 0x24664, size: 0x8, addend: 0x0, symName: __ZNSt16allocator_traitsISaISt6vectorISt10shared_ptrIN4MCMF4EdgeEESaIS4_EEEE10deallocateERS7_PS6_m, symObjAddr: 0x2B98, symBinAddr: 0x100004974, symSize: 0x30 }
  - { offsetInCU: 0x2471B, offset: 0x2471B, size: 0x8, addend: 0x0, symName: __ZN9__gnu_cxx13new_allocatorISt6vectorISt10shared_ptrIN4MCMF4EdgeEESaIS5_EEEC2Ev, symObjAddr: 0x2B84, symBinAddr: 0x100004960, symSize: 0x14 }
  - { offsetInCU: 0x246F4, offset: 0x246F4, size: 0x8, addend: 0x0, symName: __ZNSt16_Sp_counted_baseILN9__gnu_cxx12_Lock_policyE2EE10_M_destroyEv, symObjAddr: 0x2B48, symBinAddr: 0x100004924, symSize: 0x3C }
  - { offsetInCU: 0x2471E, offset: 0x2471E, size: 0x8, addend: 0x0, symName: __ZNSt6vectorIiSaIiEE21_M_default_initializeEm, symObjAddr: 0x2AF8, symBinAddr: 0x1000048D4, symSize: 0x50 }
  - { offsetInCU: 0x24755, offset: 0x24755, size: 0x8, addend: 0x0, symName: __ZSt15allocate_sharedIN4MCMF4EdgeESaIS1_EJRiiiiEESt10shared_ptrIT_ERKT0_DpOT1_, symObjAddr: 0x2A68, symBinAddr: 0x100004844, symSize: 0x90 }
  - { offsetInCU: 0x247D6, offset: 0x247D6, size: 0x8, addend: 0x0, symName: __ZSt15allocate_sharedIN4MCMF4EdgeESaIS1_EJiRiiiEESt10shared_ptrIT_ERKT0_DpOT1_, symObjAddr: 0x29D8, symBinAddr: 0x1000047B4, symSize: 0x90 }
  - { offsetInCU: 0x2485B, offset: 0x2485B, size: 0x8, addend: 0x0, symName: __ZNSt6vectorISt10shared_ptrIN4MCMF4EdgeEESaIS3_EE17_M_realloc_insertIJRKS3_EEEvN9__gnu_cxx17__normal_iteratorIPS3_S5_EEDpOT_, symObjAddr: 0x2860, symBinAddr: 0x10000463C, symSize: 0x178 }
  - { offsetInCU: 0x24916, offset: 0x24916, size: 0x8, addend: 0x0, symName: __ZNSt16allocator_traitsISaISt10shared_ptrIN4MCMF4EdgeEEEE9constructIS3_JRKS3_EEEvRS4_PT_DpOT0_, symObjAddr: 0x2828, symBinAddr: 0x100004604, symSize: 0x38 }
  - { offsetInCU: 0x24975, offset: 0x24975, size: 0x8, addend: 0x0, symName: __ZSt15allocate_sharedIN4MCMF4EdgeESaIS1_EJRiS3_iS3_EESt10shared_ptrIT_ERKT0_DpOT1_, symObjAddr: 0x2798, symBinAddr: 0x100004574, symSize: 0x90 }
  - { offsetInCU: 0x249FD, offset: 0x249FD, size: 0x8, addend: 0x0, symName: __ZSt7forwardIRiEOT_RNSt16remove_referenceIS1_E4typeE, symObjAddr: 0x2784, symBinAddr: 0x100004560, symSize: 0x14 }
  - { offsetInCU: 0x24A6B, offset: 0x24A6B, size: 0x8, addend: 0x0, symName: __ZNSaIN4MCMF4EdgeEED1Ev, symObjAddr: 0x2764, symBinAddr: 0x100004540, symSize: 0x20 }
  - { offsetInCU: 0x24A95, offset: 0x24A95, size: 0x8, addend: 0x0, symName: __ZNSaIN4MCMF4EdgeEED2Ev, symObjAddr: 0x2744, symBinAddr: 0x100004520, symSize: 0x20 }
  - { offsetInCU: 0x24AD5, offset: 0x24AD5, size: 0x8, addend: 0x0, symName: __ZNSaIN4MCMF4EdgeEEC1Ev, symObjAddr: 0x2724, symBinAddr: 0x100004500, symSize: 0x20 }
  - { offsetInCU: 0x24AE7, offset: 0x24AE7, size: 0x8, addend: 0x0, symName: __ZNSt6vectorIS_ISt10shared_ptrIN4MCMF4EdgeEESaIS3_EESaIS5_EE15_M_erase_at_endEPS5_, symObjAddr: 0x26A4, symBinAddr: 0x100004480, symSize: 0x80 }
  - { offsetInCU: 0x24B46, offset: 0x24B46, size: 0x8, addend: 0x0, symName: __ZNSt6vectorIS_ISt10shared_ptrIN4MCMF4EdgeEESaIS3_EESaIS5_EE17_M_default_appendEm, symObjAddr: 0x2454, symBinAddr: 0x100004230, symSize: 0x250 }
  - { offsetInCU: 0x24BD3, offset: 0x24BD3, size: 0x8, addend: 0x0, symName: __ZNSt16_Sp_counted_baseILN9__gnu_cxx12_Lock_policyE2EE15_M_add_ref_copyEv, symObjAddr: 0x23C0, symBinAddr: 0x10000419C, symSize: 0x94 }
  - { offsetInCU: 0x24C9A, offset: 0x24C9A, size: 0x8, addend: 0x0, symName: __ZNSt12_Vector_baseIiSaIiEE13_M_deallocateEPim, symObjAddr: 0x2384, symBinAddr: 0x100004160, symSize: 0x3C }
  - { offsetInCU: 0x24D2F, offset: 0x24D2F, size: 0x8, addend: 0x0, symName: __ZNSt12_Vector_baseIiSaIiEE17_Vector_impl_dataC2Ev, symObjAddr: 0x2358, symBinAddr: 0x100004134, symSize: 0x2C }
  - { offsetInCU: 0x24D26, offset: 0x24D26, size: 0x8, addend: 0x0, symName: __ZNKSt19__shared_ptr_accessIN4MCMF4EdgeELN9__gnu_cxx12_Lock_policyE2ELb0ELb0EE6_M_getEv, symObjAddr: 0x233C, symBinAddr: 0x100004118, symSize: 0x1C }
  - { offsetInCU: 0x24D50, offset: 0x24D50, size: 0x8, addend: 0x0, symName: __ZNK9__gnu_cxx17__normal_iteratorIPSt10shared_ptrIN4MCMF4EdgeEESt6vectorIS4_SaIS4_EEE4baseEv, symObjAddr: 0x2328, symBinAddr: 0x100004104, symSize: 0x14 }
  - { offsetInCU: 0x24DFB, offset: 0x24DFB, size: 0x8, addend: 0x0, symName: __ZN9__gnu_cxx17__normal_iteratorIPSt10shared_ptrIN4MCMF4EdgeEESt6vectorIS4_SaIS4_EEEC1ERKS5_, symObjAddr: 0x2300, symBinAddr: 0x1000040DC, symSize: 0x28 }
  - { offsetInCU: 0x24DCD, offset: 0x24DCD, size: 0x8, addend: 0x0, symName: __ZSt8_DestroyIPiiEvT_S1_RSaIT0_E, symObjAddr: 0x22D4, symBinAddr: 0x1000040B0, symSize: 0x2C }
  - { offsetInCU: 0x24E27, offset: 0x24E27, size: 0x8, addend: 0x0, symName: __ZNSt12_Vector_baseIiSaIiEE19_M_get_Tp_allocatorEv, symObjAddr: 0x22C0, symBinAddr: 0x10000409C, symSize: 0x14 }
  - { offsetInCU: 0x24E51, offset: 0x24E51, size: 0x8, addend: 0x0, symName: __ZNSt6vectorIiSaIiEE18_M_fill_initializeEmRKi, symObjAddr: 0x2268, symBinAddr: 0x100004044, symSize: 0x58 }
  - { offsetInCU: 0x24EF4, offset: 0x24EF4, size: 0x8, addend: 0x0, symName: __ZNSt12_Vector_baseIiSaIiEEC2EmRKS0_, symObjAddr: 0x2214, symBinAddr: 0x100003FF0, symSize: 0x54 }
  - { offsetInCU: 0x24F07, offset: 0x24F07, size: 0x8, addend: 0x0, symName: __ZNSt6vectorIiSaIiEE17_S_check_init_lenEmRKS0_, symObjAddr: 0x21AC, symBinAddr: 0x100003F88, symSize: 0x68 }
  - { offsetInCU: 0x24F8A, offset: 0x24F8A, size: 0x8, addend: 0x0, symName: __ZN9__gnu_cxx13new_allocatorIiED2Ev, symObjAddr: 0x2198, symBinAddr: 0x100003F74, symSize: 0x14 }
  - { offsetInCU: 0x24FCA, offset: 0x24FCA, size: 0x8, addend: 0x0, symName: __ZN9__gnu_cxx13new_allocatorIiEC2Ev, symObjAddr: 0x2184, symBinAddr: 0x100003F60, symSize: 0x14 }
  - { offsetInCU: 0x24FCC, offset: 0x24FCC, size: 0x8, addend: 0x0, symName: __ZSt22__uninitialized_copy_aIPSt6vectorISt10shared_ptrIN4MCMF4EdgeEESaIS4_EES7_S6_ET0_T_S9_S8_RSaIT1_E, symObjAddr: 0x2154, symBinAddr: 0x100003F30, symSize: 0x30 }
  - { offsetInCU: 0x2503C, offset: 0x2503C, size: 0x8, addend: 0x0, symName: __ZSt4copyIPSt6vectorISt10shared_ptrIN4MCMF4EdgeEESaIS4_EES7_ET0_T_S9_S8_, symObjAddr: 0x210C, symBinAddr: 0x100003EE8, symSize: 0x48 }
  - { offsetInCU: 0x2509A, offset: 0x2509A, size: 0x8, addend: 0x0, symName: __ZSt8_DestroyIN9__gnu_cxx17__normal_iteratorIPSt6vectorISt10shared_ptrIN4MCMF4EdgeEESaIS6_EES2_IS8_SaIS8_EEEES8_EvT_SD_RSaIT0_E, symObjAddr: 0x20E0, symBinAddr: 0x100003EBC, symSize: 0x2C }
  - { offsetInCU: 0x250F4, offset: 0x250F4, size: 0x8, addend: 0x0, symName: __ZNSt6vectorIS_ISt10shared_ptrIN4MCMF4EdgeEESaIS3_EESaIS5_EE3endEv, symObjAddr: 0x20B8, symBinAddr: 0x100003E94, symSize: 0x28 }
  - { offsetInCU: 0x2511A, offset: 0x2511A, size: 0x8, addend: 0x0, symName: __ZSt4copyIN9__gnu_cxx17__normal_iteratorIPKSt6vectorISt10shared_ptrIN4MCMF4EdgeEESaIS6_EES2_IS8_SaIS8_EEEENS1_IPS8_SC_EEET0_T_SH_SG_, symObjAddr: 0x2070, symBinAddr: 0x100003E4C, symSize: 0x48 }
  - { offsetInCU: 0x2517C, offset: 0x2517C, size: 0x8, addend: 0x0, symName: __ZNSt6vectorIS_ISt10shared_ptrIN4MCMF4EdgeEESaIS3_EESaIS5_EE5beginEv, symObjAddr: 0x204C, symBinAddr: 0x100003E28, symSize: 0x24 }
  - { offsetInCU: 0x251A6, offset: 0x251A6, size: 0x8, addend: 0x0, symName: __ZNSt6vectorIS_ISt10shared_ptrIN4MCMF4EdgeEESaIS3_EESaIS5_EE20_M_allocate_and_copyIN9__gnu_cxx17__normal_iteratorIPKS5_S7_EEEEPS5_mT_SF_, symObjAddr: 0x1FC8, symBinAddr: 0x100003DA4, symSize: 0x84 }
  - { offsetInCU: 0x2521D, offset: 0x2521D, size: 0x8, addend: 0x0, symName: __ZNKSt6vectorIS_ISt10shared_ptrIN4MCMF4EdgeEESaIS3_EESaIS5_EE3endEv, symObjAddr: 0x1FA0, symBinAddr: 0x100003D7C, symSize: 0x28 }
  - { offsetInCU: 0x25247, offset: 0x25247, size: 0x8, addend: 0x0, symName: __ZNKSt6vectorIS_ISt10shared_ptrIN4MCMF4EdgeEESaIS3_EESaIS5_EE5beginEv, symObjAddr: 0x1F7C, symBinAddr: 0x100003D58, symSize: 0x24 }
  - { offsetInCU: 0x25271, offset: 0x25271, size: 0x8, addend: 0x0, symName: __ZNKSt6vectorIS_ISt10shared_ptrIN4MCMF4EdgeEESaIS3_EESaIS5_EE8capacityEv, symObjAddr: 0x1F48, symBinAddr: 0x100003D24, symSize: 0x34 }
  - { offsetInCU: 0x2529B, offset: 0x2529B, size: 0x8, addend: 0x0, symName: __ZNKSt6vectorIS_ISt10shared_ptrIN4MCMF4EdgeEESaIS3_EESaIS5_EE4sizeEv, symObjAddr: 0x1F14, symBinAddr: 0x100003CF0, symSize: 0x34 }
  - { offsetInCU: 0x252C1, offset: 0x252C1, size: 0x8, addend: 0x0, symName: __ZSt15__alloc_on_copyISaISt6vectorISt10shared_ptrIN4MCMF4EdgeEESaIS4_EEEEvRT_RKS8_, symObjAddr: 0x1EFC, symBinAddr: 0x100003CD8, symSize: 0x18 }
  - { offsetInCU: 0x25309, offset: 0x25309, size: 0x8, addend: 0x0, symName: __ZNSt6vectorIS_ISt10shared_ptrIN4MCMF4EdgeEESaIS3_EESaIS5_EE5clearEv, symObjAddr: 0x1ED0, symBinAddr: 0x100003CAC, symSize: 0x2C }
  - { offsetInCU: 0x2532F, offset: 0x2532F, size: 0x8, addend: 0x0, symName: __ZStneRKSaISt6vectorISt10shared_ptrIN4MCMF4EdgeEESaIS3_EEES8_, symObjAddr: 0x1EB8, symBinAddr: 0x100003C94, symSize: 0x18 }
  - { offsetInCU: 0x2535E, offset: 0x2535E, size: 0x8, addend: 0x0, symName: __ZNKSt12_Vector_baseISt6vectorISt10shared_ptrIN4MCMF4EdgeEESaIS4_EESaIS6_EE19_M_get_Tp_allocatorEv, symObjAddr: 0x1EA4, symBinAddr: 0x100003C80, symSize: 0x14 }
  - { offsetInCU: 0x25384, offset: 0x25384, size: 0x8, addend: 0x0, symName: __ZSt8_DestroyIPSt6vectorISt10shared_ptrIN4MCMF4EdgeEESaIS4_EES6_EvT_S8_RSaIT0_E, symObjAddr: 0x1E78, symBinAddr: 0x100003C54, symSize: 0x2C }
  - { offsetInCU: 0x253DE, offset: 0x253DE, size: 0x8, addend: 0x0, symName: __ZNSt12_Vector_baseISt6vectorISt10shared_ptrIN4MCMF4EdgeEESaIS4_EESaIS6_EE19_M_get_Tp_allocatorEv, symObjAddr: 0x1E64, symBinAddr: 0x100003C40, symSize: 0x14 }
  - { offsetInCU: 0x25408, offset: 0x25408, size: 0x8, addend: 0x0, symName: __ZNSt12_Vector_baseISt6vectorISt10shared_ptrIN4MCMF4EdgeEESaIS4_EESaIS6_EE13_M_deallocateEPS6_m, symObjAddr: 0x1E28, symBinAddr: 0x100003C04, symSize: 0x3C }
  - { offsetInCU: 0x254C5, offset: 0x254C5, size: 0x8, addend: 0x0, symName: __ZN9__gnu_cxx13new_allocatorISt6vectorISt10shared_ptrIN4MCMF4EdgeEESaIS5_EEED2Ev, symObjAddr: 0x1E14, symBinAddr: 0x100003BF0, symSize: 0x14 }
  - { offsetInCU: 0x25516, offset: 0x25516, size: 0x8, addend: 0x0, symName: __ZNSt12_Vector_baseISt6vectorISt10shared_ptrIN4MCMF4EdgeEESaIS4_EESaIS6_EE17_Vector_impl_dataC2Ev, symObjAddr: 0x1DE8, symBinAddr: 0x100003BC4, symSize: 0x2C }
  - { offsetInCU: 0x2552E, offset: 0x2552E, size: 0x8, addend: 0x0, symName: __ZNSaISt6vectorISt10shared_ptrIN4MCMF4EdgeEESaIS3_EEEC2Ev, symObjAddr: 0x1DC8, symBinAddr: 0x100003BA4, symSize: 0x20 }
  - { offsetInCU: 0x2551E, offset: 0x2551E, size: 0x8, addend: 0x0, symName: __ZNSt14__shared_countILN9__gnu_cxx12_Lock_policyE2EE7_M_swapERS2_, symObjAddr: 0x1D88, symBinAddr: 0x100003B64, symSize: 0x40 }
  - { offsetInCU: 0x255CB, offset: 0x255CB, size: 0x8, addend: 0x0, symName: __ZNSt14__shared_countILN9__gnu_cxx12_Lock_policyE2EEC1ERKS2_, symObjAddr: 0x1D40, symBinAddr: 0x100003B1C, symSize: 0x48 }
  - { offsetInCU: 0x255C1, offset: 0x255C1, size: 0x8, addend: 0x0, symName: __ZNSt16_Sp_counted_baseILN9__gnu_cxx12_Lock_policyE2EE10_M_releaseEv, symObjAddr: 0x1BB8, symBinAddr: 0x100003994, symSize: 0x188 }
  - { offsetInCU: 0x2578D, offset: 0x2578D, size: 0x8, addend: 0x0, symName: __ZNSt6vectorIiSaIiEEC1EmRKS0_, symObjAddr: 0x1B50, symBinAddr: 0x10000392C, symSize: 0x68 }
  - { offsetInCU: 0x257A7, offset: 0x257A7, size: 0x8, addend: 0x0, symName: __ZSt11make_sharedIN4MCMF4EdgeEJRiiiiEESt10shared_ptrIT_EDpOT0_, symObjAddr: 0x1AA0, symBinAddr: 0x10000387C, symSize: 0xB0 }
  - { offsetInCU: 0x2580E, offset: 0x2580E, size: 0x8, addend: 0x0, symName: __ZSt11make_sharedIN4MCMF4EdgeEJiRiiiEESt10shared_ptrIT_EDpOT0_, symObjAddr: 0x19F0, symBinAddr: 0x1000037CC, symSize: 0xB0 }
  - { offsetInCU: 0x25879, offset: 0x25879, size: 0x8, addend: 0x0, symName: __ZNSt6vectorISt10shared_ptrIN4MCMF4EdgeEESaIS3_EE9push_backERKS3_, symObjAddr: 0x1970, symBinAddr: 0x10000374C, symSize: 0x80 }
  - { offsetInCU: 0x258B0, offset: 0x258B0, size: 0x8, addend: 0x0, symName: __ZSt11make_sharedIN4MCMF4EdgeEJRiS2_iS2_EESt10shared_ptrIT_EDpOT0_, symObjAddr: 0x18C0, symBinAddr: 0x10000369C, symSize: 0xB0 }
  - { offsetInCU: 0x2591B, offset: 0x2591B, size: 0x8, addend: 0x0, symName: __ZNSt6vectorIS_ISt10shared_ptrIN4MCMF4EdgeEESaIS3_EESaIS5_EE6resizeEm, symObjAddr: 0x180C, symBinAddr: 0x1000035E8, symSize: 0xB4 }
  - { offsetInCU: 0x25956, offset: 0x25956, size: 0x8, addend: 0x0, symName: __ZNKSt12__shared_ptrIN4MCMF4EdgeELN9__gnu_cxx12_Lock_policyE2EEcvbEv, symObjAddr: 0x17E8, symBinAddr: 0x1000035C4, symSize: 0x24 }
  - { offsetInCU: 0x25980, offset: 0x25980, size: 0x8, addend: 0x0, symName: __ZNSt14__shared_countILN9__gnu_cxx12_Lock_policyE2EEaSERKS2_, symObjAddr: 0x1770, symBinAddr: 0x10000354C, symSize: 0x78 }
  - { offsetInCU: 0x25A0C, offset: 0x25A0C, size: 0x8, addend: 0x0, symName: __ZNSt12_Vector_baseIiSaIiEED2Ev, symObjAddr: 0x1720, symBinAddr: 0x1000034FC, symSize: 0x50 }
  - { offsetInCU: 0x25A5A, offset: 0x25A5A, size: 0x8, addend: 0x0, symName: __ZNSt12_Vector_baseIiSaIiEE12_Vector_implC1Ev, symObjAddr: 0x16F8, symBinAddr: 0x1000034D4, symSize: 0x28 }
  - { offsetInCU: 0x25A56, offset: 0x25A56, size: 0x8, addend: 0x0, symName: __ZNKSt19__shared_ptr_accessIN4MCMF4EdgeELN9__gnu_cxx12_Lock_policyE2ELb0ELb0EEptEv, symObjAddr: 0x16DC, symBinAddr: 0x1000034B8, symSize: 0x1C }
  - { offsetInCU: 0x25A80, offset: 0x25A80, size: 0x8, addend: 0x0, symName: __ZNK9__gnu_cxx17__normal_iteratorIPSt10shared_ptrIN4MCMF4EdgeEESt6vectorIS4_SaIS4_EEEdeEv, symObjAddr: 0x16C4, symBinAddr: 0x1000034A0, symSize: 0x18 }
  - { offsetInCU: 0x25AAA, offset: 0x25AAA, size: 0x8, addend: 0x0, symName: __ZN9__gnu_cxx17__normal_iteratorIPSt10shared_ptrIN4MCMF4EdgeEESt6vectorIS4_SaIS4_EEEppEv, symObjAddr: 0x169C, symBinAddr: 0x100003478, symSize: 0x28 }
  - { offsetInCU: 0x25AD0, offset: 0x25AD0, size: 0x8, addend: 0x0, symName: __ZN9__gnu_cxxneIPSt10shared_ptrIN4MCMF4EdgeEESt6vectorIS4_SaIS4_EEEEbRKNS_17__normal_iteratorIT_T0_EESE_, symObjAddr: 0x1658, symBinAddr: 0x100003434, symSize: 0x44 }
  - { offsetInCU: 0x25B21, offset: 0x25B21, size: 0x8, addend: 0x0, symName: __ZNSt6vectorISt10shared_ptrIN4MCMF4EdgeEESaIS3_EE3endEv, symObjAddr: 0x1630, symBinAddr: 0x10000340C, symSize: 0x28 }
  - { offsetInCU: 0x25B4B, offset: 0x25B4B, size: 0x8, addend: 0x0, symName: __ZNSt6vectorISt10shared_ptrIN4MCMF4EdgeEESaIS3_EE5beginEv, symObjAddr: 0x160C, symBinAddr: 0x1000033E8, symSize: 0x24 }
  - { offsetInCU: 0x25B75, offset: 0x25B75, size: 0x8, addend: 0x0, symName: __ZNSt6vectorIS_ISt10shared_ptrIN4MCMF4EdgeEESaIS3_EESaIS5_EEixEm, symObjAddr: 0x15D8, symBinAddr: 0x1000033B4, symSize: 0x34 }
  - { offsetInCU: 0x25BB0, offset: 0x25BB0, size: 0x8, addend: 0x0, symName: __ZNSt6vectorIiSaIiEEixEm, symObjAddr: 0x15B0, symBinAddr: 0x10000338C, symSize: 0x28 }
  - { offsetInCU: 0x25C24, offset: 0x25C24, size: 0x8, addend: 0x0, symName: __ZNSt6vectorIiSaIiEED1Ev, symObjAddr: 0x1560, symBinAddr: 0x10000333C, symSize: 0x50 }
  - { offsetInCU: 0x25C96, offset: 0x25C96, size: 0x8, addend: 0x0, symName: __ZNSt6vectorIiSaIiEEC1EmRKiRKS0_, symObjAddr: 0x14F0, symBinAddr: 0x1000032CC, symSize: 0x70 }
  - { offsetInCU: 0x25CE7, offset: 0x25CE7, size: 0x8, addend: 0x0, symName: __ZNSaIiED1Ev, symObjAddr: 0x14D0, symBinAddr: 0x1000032AC, symSize: 0x20 }
  - { offsetInCU: 0x25D11, offset: 0x25D11, size: 0x8, addend: 0x0, symName: __ZNSaIiED2Ev, symObjAddr: 0x14B0, symBinAddr: 0x10000328C, symSize: 0x20 }
  - { offsetInCU: 0x25D51, offset: 0x25D51, size: 0x8, addend: 0x0, symName: __ZNSaIiEC1Ev, symObjAddr: 0x1490, symBinAddr: 0x10000326C, symSize: 0x20 }
  - { offsetInCU: 0x25D7B, offset: 0x25D7B, size: 0x8, addend: 0x0, symName: __ZNSaIiEC2Ev, symObjAddr: 0x1470, symBinAddr: 0x10000324C, symSize: 0x20 }
  - { offsetInCU: 0x25D98, offset: 0x25D98, size: 0x8, addend: 0x0, symName: __ZNSt6vectorIS_ISt10shared_ptrIN4MCMF4EdgeEESaIS3_EESaIS5_EEaSERKS7_, symObjAddr: 0x111C, symBinAddr: 0x100002EF8, symSize: 0x354 }
  - { offsetInCU: 0x25E15, offset: 0x25E15, size: 0x8, addend: 0x0, symName: __ZN9__gnu_cxx14__alloc_traitsISaISt6vectorISt10shared_ptrIN4MCMF4EdgeEESaIS5_EEES7_E15_S_always_equalEv, symObjAddr: 0x1114, symBinAddr: 0x100002EF0, symSize: 0x8 }
  - { offsetInCU: 0x25E2D, offset: 0x25E2D, size: 0x8, addend: 0x0, symName: __ZN9__gnu_cxx14__alloc_traitsISaISt6vectorISt10shared_ptrIN4MCMF4EdgeEESaIS5_EEES7_E27_S_propagate_on_copy_assignEv, symObjAddr: 0x110C, symBinAddr: 0x100002EE8, symSize: 0x8 }
  - { offsetInCU: 0x25EA9, offset: 0x25EA9, size: 0x8, addend: 0x0, symName: __ZNSt6vectorIS_ISt10shared_ptrIN4MCMF4EdgeEESaIS3_EESaIS5_EED1Ev, symObjAddr: 0x10BC, symBinAddr: 0x100002E98, symSize: 0x50 }
  - { offsetInCU: 0x25F01, offset: 0x25F01, size: 0x8, addend: 0x0, symName: __ZNSt12_Vector_baseISt6vectorISt10shared_ptrIN4MCMF4EdgeEESaIS4_EESaIS6_EED2Ev, symObjAddr: 0x1060, symBinAddr: 0x100002E3C, symSize: 0x5C }
  - { offsetInCU: 0x25F36, offset: 0x25F36, size: 0x8, addend: 0x0, symName: __ZNSaISt6vectorISt10shared_ptrIN4MCMF4EdgeEESaIS3_EEED2Ev, symObjAddr: 0x1040, symBinAddr: 0x100002E1C, symSize: 0x20 }
  - { offsetInCU: 0x25F99, offset: 0x25F99, size: 0x8, addend: 0x0, symName: __ZNSt12_Vector_baseISt6vectorISt10shared_ptrIN4MCMF4EdgeEESaIS4_EESaIS6_EE12_Vector_implC1Ev, symObjAddr: 0x1018, symBinAddr: 0x100002DF4, symSize: 0x28 }
  - { offsetInCU: 0x25FBF, offset: 0x25FBF, size: 0x8, addend: 0x0, symName: __ZNSt14__shared_countILN9__gnu_cxx12_Lock_policyE2EED1Ev, symObjAddr: 0xFE4, symBinAddr: 0x100002DC0, symSize: 0x34 }
  - { offsetInCU: 0x25FB3, offset: 0x25FB3, size: 0x8, addend: 0x0, symName: __ZSt7forwardIiEOT_RNSt16remove_referenceIS0_E4typeE, symObjAddr: 0xFD0, symBinAddr: 0x100002DAC, symSize: 0x14 }
  - { offsetInCU: 0x25FE5, offset: 0x25FE5, size: 0x8, addend: 0x0, symName: __ZSt3maxImERKT_S2_S2_, symObjAddr: 0xF98, symBinAddr: 0x100002D74, symSize: 0x38 }
  - { offsetInCU: 0x26030, offset: 0x26030, size: 0x8, addend: 0x0, symName: _main, symObjAddr: 0x9D0, symBinAddr: 0x1000027AC, symSize: 0x5C8 }
  - { offsetInCU: 0x261F8, offset: 0x261F8, size: 0x8, addend: 0x0, symName: __ZN4MCMFD1Ev, symObjAddr: 0x9B0, symBinAddr: 0x10000278C, symSize: 0x20 }
  - { offsetInCU: 0x26215, offset: 0x26215, size: 0x8, addend: 0x0, symName: __ZN4MCMF17min_cost_max_flowEv, symObjAddr: 0x958, symBinAddr: 0x100002734, symSize: 0x58 }
  - { offsetInCU: 0x2625F, offset: 0x2625F, size: 0x8, addend: 0x0, symName: __ZN4MCMF13shortest_pathEv, symObjAddr: 0x36C, symBinAddr: 0x100002148, symSize: 0x5EC }
  - { offsetInCU: 0x26418, offset: 0x26418, size: 0x8, addend: 0x0, symName: __ZNSt10shared_ptrIN4MCMF4EdgeEEaSERKS2_, symObjAddr: 0x344, symBinAddr: 0x100002120, symSize: 0x28 }
  - { offsetInCU: 0x2644B, offset: 0x2644B, size: 0x8, addend: 0x0, symName: __ZNSt12__shared_ptrIN4MCMF4EdgeELN9__gnu_cxx12_Lock_policyE2EEaSERKS4_, symObjAddr: 0x304, symBinAddr: 0x1000020E0, symSize: 0x40 }
  - { offsetInCU: 0x264C5, offset: 0x264C5, size: 0x8, addend: 0x0, symName: __ZNSt10shared_ptrIN4MCMF4EdgeEED1Ev, symObjAddr: 0x2E4, symBinAddr: 0x1000020C0, symSize: 0x20 }
  - { offsetInCU: 0x2651A, offset: 0x2651A, size: 0x8, addend: 0x0, symName: __ZNSt14__shared_countILN9__gnu_cxx12_Lock_policyE2EEC1Ev, symObjAddr: 0x2C8, symBinAddr: 0x1000020A4, symSize: 0x1C }
  - { offsetInCU: 0x2656E, offset: 0x2656E, size: 0x8, addend: 0x0, symName: __ZNSt12__shared_ptrIN4MCMF4EdgeELN9__gnu_cxx12_Lock_policyE2EED2Ev, symObjAddr: 0x2A4, symBinAddr: 0x100002080, symSize: 0x24 }
  - { offsetInCU: 0x26584, offset: 0x26584, size: 0x8, addend: 0x0, symName: __ZNSt6vectorIiSaIiEEC1Ev, symObjAddr: 0x284, symBinAddr: 0x100002060, symSize: 0x20 }
  - { offsetInCU: 0x265CB, offset: 0x265CB, size: 0x8, addend: 0x0, symName: __ZNSt12_Vector_baseIiSaIiEEC2Ev, symObjAddr: 0x264, symBinAddr: 0x100002040, symSize: 0x20 }
  - { offsetInCU: 0x26626, offset: 0x26626, size: 0x8, addend: 0x0, symName: __ZNSt12_Vector_baseIiSaIiEE12_Vector_implD1Ev, symObjAddr: 0x244, symBinAddr: 0x100002020, symSize: 0x20 }
  - { offsetInCU: 0x266B3, offset: 0x266B3, size: 0x8, addend: 0x0, symName: __ZN4MCMFC1EiiiRSt6vectorIS0_ISt10shared_ptrINS_4EdgeEESaIS3_EESaIS5_EE, symObjAddr: 0x1C8, symBinAddr: 0x100001FA4, symSize: 0x7C }
  - { offsetInCU: 0x26711, offset: 0x26711, size: 0x8, addend: 0x0, symName: __ZNSt6vectorIS_ISt10shared_ptrIN4MCMF4EdgeEESaIS3_EESaIS5_EEC1Ev, symObjAddr: 0x1A8, symBinAddr: 0x100001F84, symSize: 0x20 }
  - { offsetInCU: 0x2675F, offset: 0x2675F, size: 0x8, addend: 0x0, symName: __ZNSt12_Vector_baseISt6vectorISt10shared_ptrIN4MCMF4EdgeEESaIS4_EESaIS6_EEC2Ev, symObjAddr: 0x188, symBinAddr: 0x100001F64, symSize: 0x20 }
  - { offsetInCU: 0x267BA, offset: 0x267BA, size: 0x8, addend: 0x0, symName: __ZNSt12_Vector_baseISt6vectorISt10shared_ptrIN4MCMF4EdgeEESaIS4_EESaIS6_EE12_Vector_implD1Ev, symObjAddr: 0x168, symBinAddr: 0x100001F44, symSize: 0x20 }
  - { offsetInCU: 0x267F4, offset: 0x267F4, size: 0x8, addend: 0x0, symName: __ZN4MCMF4EdgeC1Eiiiii, symObjAddr: 0x104, symBinAddr: 0x100001EE0, symSize: 0x64 }
  - { offsetInCU: 0x26831, offset: 0x26831, size: 0x8, addend: 0x0, symName: __ZNSt19_Sp_make_shared_tag5_S_tiEv, symObjAddr: 0xF8, symBinAddr: 0x100001ED4, symSize: 0xC }
  - { offsetInCU: 0x2687F, offset: 0x2687F, size: 0x8, addend: 0x0, symName: __ZZNSt19_Sp_make_shared_tag5_S_tiEvE5__tag, symObjAddr: 0x7000, symBinAddr: 0x10000A090, symSize: 0x0 }
  - { offsetInCU: 0x26877, offset: 0x26877, size: 0x8, addend: 0x0, symName: __ZSt3minImERKT_S2_S2_, symObjAddr: 0xC0, symBinAddr: 0x100001E9C, symSize: 0x38 }
  - { offsetInCU: 0x269BD, offset: 0x269BD, size: 0x8, addend: 0x0, symName: __ZL18__gthread_active_pv, symObjAddr: 0xB8, symBinAddr: 0x100001E94, symSize: 0x8 }
  - { offsetInCU: 0x269D2, offset: 0x269D2, size: 0x8, addend: 0x0, symName: __ZdlPvS_, symObjAddr: 0xA0, symBinAddr: 0x100001E7C, symSize: 0x18 }
  - { offsetInCU: 0x26A07, offset: 0x26A07, size: 0x8, addend: 0x0, symName: __ZnwmPv, symObjAddr: 0x88, symBinAddr: 0x100001E64, symSize: 0x18 }
  - { offsetInCU: 0x26A38, offset: 0x26A38, size: 0x8, addend: 0x0, symName: __ZNKSt9type_infoeqERKS_, symObjAddr: 0x14, symBinAddr: 0x100001DF0, symSize: 0x74 }
  - { offsetInCU: 0x26A6F, offset: 0x26A6F, size: 0x8, addend: 0x0, symName: __ZSt17__size_to_integerm, symObjAddr: 0x0, symBinAddr: 0x100001DDC, symSize: 0x14 }
...
